

Microchip MPLAB XC8 Assembler V2.36 build 20220127204148 
                                                                                               Thu Oct 12 14:25:23 2023

Microchip MPLAB XC8 C Compiler v2.36 (Free license) build 20220127204148 Og1 
     1                           	processor	18F4580
     2                           	fnconf	rparam,??,?,0
     3                           	pagewidth 120
     4                           	opt	flic
     5                           	psect	idataCOMRAM,global,class=CODE,delta=1,noexec
     6                           	psect	idataBANK0,global,class=CODE,delta=1,noexec
     7                           	psect	idataBANK1,global,class=CODE,delta=1,noexec
     8                           	psect	smallconst,global,reloc=2,class=SMALLCONST,delta=1,noexec
     9                           	psect	cinit,global,reloc=2,class=CODE,delta=1
    10                           	psect	bssCOMRAM,global,class=COMRAM,space=1,delta=1,lowdata,noexec
    11                           	psect	dataCOMRAM,global,class=COMRAM,space=1,delta=1,lowdata,noexec
    12                           	psect	bssBANK0,global,class=BANK0,space=1,delta=1,lowdata,noexec
    13                           	psect	dataBANK0,global,class=BANK0,space=1,delta=1,lowdata,noexec
    14                           	psect	dataBANK1,global,class=BANK1,space=1,delta=1,lowdata,noexec
    15                           	psect	cstackBANK0,global,class=BANK0,space=1,delta=1,lowdata,noexec
    16                           	psect	cstackCOMRAM,global,class=COMRAM,space=1,delta=1,lowdata,noexec
    17                           	psect	text0,global,reloc=2,class=CODE,delta=1
    18                           	psect	text1,global,reloc=2,class=CODE,delta=1
    19                           	psect	text2,global,reloc=2,class=CODE,delta=1
    20                           	psect	text3,global,reloc=2,class=CODE,delta=1
    21                           	psect	text4,global,reloc=2,class=CODE,delta=1
    22                           	psect	text5,global,reloc=2,class=CODE,delta=1
    23                           	psect	text6,global,reloc=2,class=CODE,delta=1
    24                           	psect	text7,global,reloc=2,class=CODE,delta=1
    25                           	psect	text8,global,reloc=2,class=CODE,delta=1
    26                           	psect	text9,global,reloc=2,class=CODE,delta=1,group=2
    27                           	psect	text10,global,reloc=2,class=CODE,delta=1
    28                           	psect	text11,global,reloc=2,class=CODE,delta=1
    29                           	psect	text12,global,reloc=2,class=CODE,delta=1
    30                           	psect	text13,global,reloc=2,class=CODE,delta=1
    31                           	psect	text14,global,reloc=2,class=CODE,delta=1
    32                           	psect	text15,global,reloc=2,class=CODE,delta=1
    33                           	psect	text16,global,reloc=2,class=CODE,delta=1
    34                           	psect	text17,global,reloc=2,class=CODE,delta=1
    35                           	psect	text18,global,reloc=2,class=CODE,delta=1
    36                           	psect	text19,global,reloc=2,class=CODE,delta=1
    37                           	psect	text20,global,reloc=2,class=CODE,delta=1
    38                           	psect	text21,global,reloc=2,class=CODE,delta=1
    39                           	psect	text22,global,reloc=2,class=CODE,delta=1
    40                           	psect	text23,global,reloc=2,class=CODE,delta=1
    41                           	psect	text24,global,reloc=2,class=CODE,delta=1
    42                           	psect	text25,global,reloc=2,class=CODE,delta=1
    43                           	psect	text26,global,reloc=2,class=CODE,delta=1
    44                           	psect	text27,global,reloc=2,class=CODE,delta=1
    45                           	psect	text28,global,reloc=2,class=CODE,delta=1
    46                           	psect	text29,global,reloc=2,class=CODE,delta=1
    47                           	psect	text30,global,reloc=2,class=CODE,delta=1
    48                           	psect	text31,global,reloc=2,class=CODE,delta=1
    49                           	psect	text32,global,reloc=2,class=CODE,delta=1
    50                           	psect	text33,global,reloc=2,class=CODE,delta=1
    51                           	psect	text34,global,reloc=2,class=CODE,delta=1
    52                           	psect	text35,global,reloc=2,class=CODE,delta=1
    53                           	psect	text36,global,reloc=2,class=CODE,delta=1
    54                           	psect	text37,global,reloc=2,class=CODE,delta=1,group=1
    55                           	psect	text38,global,reloc=2,class=CODE,delta=1,group=1
    56                           	psect	text39,global,reloc=2,class=CODE,delta=1
    57                           	psect	text40,global,reloc=2,class=CODE,delta=1
    58                           	psect	text41,global,reloc=2,class=CODE,delta=1,group=2
    59                           	psect	text42,global,reloc=2,class=CODE,delta=1
    60                           	psect	text43,global,reloc=2,class=CODE,delta=1
    61                           	psect	text44,global,reloc=2,class=CODE,delta=1
    62                           	psect	text45,global,reloc=2,class=CODE,delta=1,group=1
    63                           	psect	text46,global,reloc=2,class=CODE,delta=1,group=1
    64                           	psect	text47,global,reloc=2,class=CODE,delta=1,group=1
    65                           	psect	intsave_regs,global,class=BIGRAM,space=1,delta=1,noexec
    66                           	psect	rparam,global,class=COMRAM,space=1,delta=1,noexec
    67                           	psect	idloc,global,abs,ovrld,class=IDLOC,space=5,delta=1,noexec
    68                           	psect	config,global,abs,ovrld,class=CONFIG,space=4,delta=1,noexec
    69  0000                     
    70                           ; Version 2.40
    71                           ; Generated 17/11/2021 GMT
    72                           ; 
    73                           ; Copyright © 2021, Microchip Technology Inc. and its subsidiaries ("Microchip")
    74                           ; All rights reserved.
    75                           ; 
    76                           ; This software is developed by Microchip Technology Inc. and its subsidiaries ("Microch
      +                          ip").
    77                           ; 
    78                           ; Redistribution and use in source and binary forms, with or without modification, are
    79                           ; permitted provided that the following conditions are met:
    80                           ; 
    81                           ;     1. Redistributions of source code must retain the above copyright notice, this lis
      +                          t of
    82                           ;        conditions and the following disclaimer.
    83                           ; 
    84                           ;     2. Redistributions in binary form must reproduce the above copyright notice, this 
      +                          list
    85                           ;        of conditions and the following disclaimer in the documentation and/or other
    86                           ;        materials provided with the distribution. Publication is not required when
    87                           ;        this file is used in an embedded application.
    88                           ; 
    89                           ;     3. Microchip's name may not be used to endorse or promote products derived from th
      +                          is
    90                           ;        software without specific prior written permission.
    91                           ; 
    92                           ; THIS SOFTWARE IS PROVIDED BY MICROCHIP "AS IS" AND ANY EXPRESS OR IMPLIED WARRANTIES,
    93                           ; INCLUDING, BUT NOT LIMITED TO, THE IMPLIED WARRANTIES OF MERCHANTABILITY AND FITNESS F
      +                          OR
    94                           ; PURPOSE ARE DISCLAIMED.  IN NO EVENT SHALL MICROCHIP BE LIABLE FOR ANY DIRECT, INDIREC
      +                          T,
    95                           ; INCIDENTAL, SPECIAL, EXEMPLARY, OR CONSEQUENTIAL DAMAGES (INCLUDING BUT NOT LIMITED TO
    96                           ; PROCUREMENT OF SUBSTITUTE GOODS OR SERVICES; LOSS OF USE, DATA OR PROFITS; OR BUSINESS
    97                           ; INTERRUPTION) HOWSOEVER CAUSED AND ON ANY THEORY OF LIABILITY, WHETHER IN CONTRACT, ST
      +                          RICT
    98                           ; LIABILITY, OR TORT (INCLUDING NEGLIGENCE OR OTHERWISE) ARISING IN ANY WAY OUT OF THE U
      +                          SE OF
    99                           ; THIS SOFTWARE, EVEN IF ADVISED OF THE POSSIBILITY OF SUCH DAMAGE.
   100                           ; 
   101                           ; 
   102                           ; Code-generator required, PIC18F4580 Definitions
   103                           ; 
   104                           ; SFR Addresses
   105  0000                     
   106                           	psect	idataCOMRAM
   107  002AB6                     __pidataCOMRAM:
   108                           	callstack 0
   109                           
   110                           ;initializer for _event_flag
   111  002AB6  01                 	db	1
   112                           
   113                           	psect	idataBANK0
   114  002A5E                     __pidataBANK0:
   115                           	callstack 0
   116                           
   117                           ;initializer for _flag
   118  002A5E  01                 	db	1
   119                           
   120                           ;initializer for check_pssd@attempt
   121  002A5F  03                 	db	3
   122                           
   123                           ;initializer for _k
   124  002A60  FF                 	db	255
   125                           
   126                           ;initializer for read_key@once
   127  002A61  01                 	db	1
   128                           
   129                           ;initializer for _time
   130  002A62  30                 	db	48
   131  002A63  30                 	db	48
   132  002A64  3A                 	db	58
   133  002A65  30                 	db	48
   134  002A66  30                 	db	48
   135  002A67  3A                 	db	58
   136  002A68  30                 	db	48
   137  002A69  30                 	db	48
   138  002A6A  00                 	db	0
   139                           
   140                           	psect	idataBANK1
   141  00265A                     __pidataBANK1:
   142                           	callstack 0
   143                           
   144                           ;initializer for login_screen@F10729
   145  00265A  56                 	db	86
   146  00265B  69                 	db	105
   147  00265C  65                 	db	101
   148  00265D  77                 	db	119
   149  00265E  20                 	db	32
   150  00265F  4C                 	db	76
   151  002660  6F                 	db	111
   152  002661  67                 	db	103
   153  002662  20                 	db	32
   154  002663  20                 	db	32
   155  002664  20                 	db	32
   156  002665  20                 	db	32
   157  002666  00                 	db	0
   158  002667  00                 	db	0
   159  002668  00                 	db	0
   160  002669  00                 	db	0
   161  00266A  00                 	db	0
   162  00266B  44                 	db	68
   163  00266C  6F                 	db	111
   164  00266D  77                 	db	119
   165  00266E  6E                 	db	110
   166  00266F  6C                 	db	108
   167  002670  6F                 	db	111
   168  002671  61                 	db	97
   169  002672  64                 	db	100
   170  002673  20                 	db	32
   171  002674  4C                 	db	76
   172  002675  6F                 	db	111
   173  002676  67                 	db	103
   174  002677  20                 	db	32
   175  002678  00                 	db	0
   176  002679  00                 	db	0
   177  00267A  00                 	db	0
   178  00267B  00                 	db	0
   179  00267C  43                 	db	67
   180  00267D  6C                 	db	108
   181  00267E  65                 	db	101
   182  00267F  61                 	db	97
   183  002680  72                 	db	114
   184  002681  20                 	db	32
   185  002682  6C                 	db	108
   186  002683  6F                 	db	111
   187  002684  67                 	db	103
   188  002685  20                 	db	32
   189  002686  20                 	db	32
   190  002687  20                 	db	32
   191  002688  20                 	db	32
   192  002689  00                 	db	0
   193  00268A  00                 	db	0
   194  00268B  00                 	db	0
   195  00268C  00                 	db	0
   196  00268D  73                 	db	115
   197  00268E  65                 	db	101
   198  00268F  74                 	db	116
   199  002690  20                 	db	32
   200  002691  74                 	db	116
   201  002692  69                 	db	105
   202  002693  6D                 	db	109
   203  002694  65                 	db	101
   204  002695  20                 	db	32
   205  002696  20                 	db	32
   206  002697  20                 	db	32
   207  002698  20                 	db	32
   208  002699  00                 	db	0
   209  00269A  00                 	db	0
   210  00269B  00                 	db	0
   211  00269C  00                 	db	0
   212  00269D  00                 	db	0
   213  00269E  63                 	db	99
   214  00269F  68                 	db	104
   215  0026A0  61                 	db	97
   216  0026A1  6E                 	db	110
   217  0026A2  67                 	db	103
   218  0026A3  65                 	db	101
   219  0026A4  20                 	db	32
   220  0026A5  70                 	db	112
   221  0026A6  61                 	db	97
   222  0026A7  73                 	db	115
   223  0026A8  73                 	db	115
   224  0026A9  64                 	db	100
   225  0026AA  20                 	db	32
   226  0026AB  00                 	db	0
   227  0026AC  00                 	db	0
   228  0026AD  00                 	db	0
   229  0026AE  00                 	db	0
   230                           
   231                           ;initializer for main@F10708
   232  0026AF  4F                 	db	79
   233  0026B0  4E                 	db	78
   234  0026B1  00                 	db	0
   235  0026B2  47                 	db	71
   236  0026B3  52                 	db	82
   237  0026B4  00                 	db	0
   238  0026B5  47                 	db	71
   239  0026B6  4E                 	db	78
   240  0026B7  00                 	db	0
   241  0026B8  47                 	db	71
   242  0026B9  31                 	db	49
   243  0026BA  00                 	db	0
   244  0026BB  47                 	db	71
   245  0026BC  32                 	db	50
   246  0026BD  00                 	db	0
   247  0026BE  47                 	db	71
   248  0026BF  33                 	db	51
   249  0026C0  00                 	db	0
   250  0026C1  47                 	db	71
   251  0026C2  34                 	db	52
   252  0026C3  00                 	db	0
   253  0026C4  43                 	db	67
   254  0026C5  20                 	db	32
   255  0026C6  00                 	db	0
   256  0000                     _SSPADD	set	4040
   257  0000                     _SSPCON1	set	4038
   258  0000                     _EECON2	set	4007
   259  0000                     _ADRESL	set	4035
   260  0000                     _ADRESH	set	4036
   261  0000                     _ACKSTAT	set	32302
   262  0000                     _CKE	set	32318
   263  0000                     _ADON	set	32272
   264  0000                     _RBPU	set	32655
   265  0000                     _ADCON0	set	4034
   266  0000                     _PORTBbits	set	3969
   267  0000                     _RCIF	set	31989
   268  0000                     _RCIE	set	31981
   269  0000                     _TXIF	set	31988
   270  0000                     _ABDEN	set	32192
   271  0000                     _WUE	set	32193
   272  0000                     _BRG16	set	32195
   273  0000                     _CREN	set	32092
   274  0000                     _RX9	set	32094
   275  0000                     _BRGH	set	32098
   276  0000                     _SENDB	set	32099
   277  0000                     _SYNC	set	32100
   278  0000                     _TXEN	set	32101
   279  0000                     _TRISC6	set	31910
   280  0000                     _TRISC7	set	31911
   281  0000                     _ACKEN	set	32300
   282  0000                     _ACKDT	set	32301
   283  0000                     _RCEN	set	32299
   284  0000                     _RSEN	set	32297
   285  0000                     _PEN	set	32298
   286  0000                     _SEN	set	32296
   287  0000                     _SMP	set	32319
   288  0000                     _TRISC4	set	31908
   289  0000                     _TRISC3	set	31907
   290  0000                     _RD	set	32048
   291  0000                     _WR	set	32049
   292  0000                     _WREN	set	32050
   293  0000                     _CFGS	set	32054
   294  0000                     _GO	set	32273
   295  0000                     _RD7	set	31775
   296  0000                     _TRISD7	set	31919
   297  0000                     _RC2	set	31762
   298  0000                     _RC1	set	31761
   299  0000                     _PORTB	set	3969
   300  0000                     _TRISC	set	3988
   301  0000                     _TRISD	set	3989
   302  0000                     _RC0	set	31760
   303  0000                     _EEDATA	set	4008
   304  0000                     _EEADR	set	4009
   305  0000                     _ADCON2	set	4032
   306  0000                     _ADCON1	set	4033
   307  0000                     _TXIE	set	31980
   308  0000                     _SSPIF	set	31987
   309  0000                     _EEPGD	set	32055
   310  0000                     _TRISB	set	3987
   311  0000                     _PORTD	set	3971
   312  0000                     _GIE	set	32663
   313  0000                     _SPEN	set	32095
   314  0000                     _TX9	set	32102
   315  0000                     _SSPBUF	set	4041
   316  0000                     _BCLIF	set	32011
   317  0000                     _TXREG	set	4013
   318  0000                     _SPBRG	set	4015
   319  0000                     _ABDOVF	set	32199
   320                           
   321                           	psect	smallconst
   322  000600                     __psmallconst:
   323                           	callstack 0
   324  000600  00                 	db	0
   325  000601                     STR_16:
   326  000601  50                 	db	80	;'P'
   327  000602  61                 	db	97	;'a'
   328  000603  73                 	db	115	;'s'
   329  000604  73                 	db	115	;'s'
   330  000605  77                 	db	119	;'w'
   331  000606  6F                 	db	111	;'o'
   332  000607  72                 	db	114	;'r'
   333  000608  64                 	db	100	;'d'
   334  000609  20                 	db	32
   335  00060A  43                 	db	67	;'C'
   336  00060B  68                 	db	104	;'h'
   337  00060C  61                 	db	97	;'a'
   338  00060D  6E                 	db	110	;'n'
   339  00060E  67                 	db	103	;'g'
   340  00060F  65                 	db	101	;'e'
   341  000610  64                 	db	100	;'d'
   342  000611  00                 	db	0
   343  000612                     STR_1:
   344  000612  20                 	db	32
   345  000613  20                 	db	32
   346  000614  54                 	db	84	;'T'
   347  000615  69                 	db	105	;'i'
   348  000616  6D                 	db	109	;'m'
   349  000617  65                 	db	101	;'e'
   350  000618  20                 	db	32
   351  000619  20                 	db	32
   352  00061A  20                 	db	32
   353  00061B  20                 	db	32
   354  00061C  45                 	db	69	;'E'
   355  00061D  56                 	db	86	;'V'
   356  00061E  20                 	db	32
   357  00061F  20                 	db	32
   358  000620  53                 	db	83	;'S'
   359  000621  50                 	db	80	;'P'
   360  000622  00                 	db	0
   361  000623                     STR_15:
   362  000623  52                 	db	82	;'R'
   363  000624  65                 	db	101	;'e'
   364  000625  6E                 	db	110	;'n'
   365  000626  74                 	db	116	;'t'
   366  000627  65                 	db	101	;'e'
   367  000628  72                 	db	114	;'r'
   368  000629  20                 	db	32
   369  00062A  50                 	db	80	;'P'
   370  00062B  61                 	db	97	;'a'
   371  00062C  73                 	db	115	;'s'
   372  00062D  73                 	db	115	;'s'
   373  00062E  77                 	db	119	;'w'
   374  00062F  6F                 	db	111	;'o'
   375  000630  72                 	db	114	;'r'
   376  000631  64                 	db	100	;'d'
   377  000632  00                 	db	0
   378  000633                     STR_17:
   379  000633  50                 	db	80	;'P'
   380  000634  73                 	db	115	;'s'
   381  000635  73                 	db	115	;'s'
   382  000636  64                 	db	100	;'d'
   383  000637  20                 	db	32
   384  000638  4E                 	db	78	;'N'
   385  000639  6F                 	db	111	;'o'
   386  00063A  74                 	db	116	;'t'
   387  00063B  20                 	db	32
   388  00063C  4D                 	db	77	;'M'
   389  00063D  61                 	db	97	;'a'
   390  00063E  74                 	db	116	;'t'
   391  00063F  63                 	db	99	;'c'
   392  000640  68                 	db	104	;'h'
   393  000641  00                 	db	0
   394  000642                     STR_5:
   395  000642  66                 	db	102	;'f'
   396  000643  6F                 	db	111	;'o'
   397  000644  72                 	db	114	;'r'
   398  000645  20                 	db	32
   399  000646  31                 	db	49	;'1'
   400  000647  32                 	db	50	;'2'
   401  000648  30                 	db	48	;'0'
   402  000649  73                 	db	115	;'s'
   403  00064A  65                 	db	101	;'e'
   404  00064B  63                 	db	99	;'c'
   405  00064C  2E                 	db	46
   406  00064D  2E                 	db	46
   407  00064E  2E                 	db	46
   408  00064F  20                 	db	32
   409  000650  00                 	db	0
   410  000651                     STR_3:
   411  000651  45                 	db	69	;'E'
   412  000652  6E                 	db	110	;'n'
   413  000653  74                 	db	116	;'t'
   414  000654  65                 	db	101	;'e'
   415  000655  72                 	db	114	;'r'
   416  000656  20                 	db	32
   417  000657  50                 	db	80	;'P'
   418  000658  61                 	db	97	;'a'
   419  000659  73                 	db	115	;'s'
   420  00065A  73                 	db	115	;'s'
   421  00065B  77                 	db	119	;'w'
   422  00065C  6F                 	db	111	;'o'
   423  00065D  72                 	db	114	;'r'
   424  00065E  64                 	db	100	;'d'
   425  00065F  00                 	db	0
   426  000660                     STR_13:
   427  000660  44                 	db	68	;'D'
   428  000661  6F                 	db	111	;'o'
   429  000662  77                 	db	119	;'w'
   430  000663  6E                 	db	110	;'n'
   431  000664  6C                 	db	108	;'l'
   432  000665  6F                 	db	111	;'o'
   433  000666  61                 	db	97	;'a'
   434  000667  64                 	db	100	;'d'
   435  000668  20                 	db	32
   436  000669  6C                 	db	108	;'l'
   437  00066A  6F                 	db	111	;'o'
   438  00066B  67                 	db	103	;'g'
   439  00066C  73                 	db	115	;'s'
   440  00066D  00                 	db	0
   441  00066E                     STR_4:
   442  00066E  59                 	db	89	;'Y'
   443  00066F  6F                 	db	111	;'o'
   444  000670  75                 	db	117	;'u'
   445  000671  20                 	db	32
   446  000672  61                 	db	97	;'a'
   447  000673  72                 	db	114	;'r'
   448  000674  65                 	db	101	;'e'
   449  000675  20                 	db	32
   450  000676  62                 	db	98	;'b'
   451  000677  6C                 	db	108	;'l'
   452  000678  6F                 	db	111	;'o'
   453  000679  63                 	db	99	;'c'
   454  00067A  6B                 	db	107	;'k'
   455  00067B  00                 	db	0
   456  00067C                     STR_6:
   457  00067C  4C                 	db	76	;'L'
   458  00067D  6F                 	db	111	;'o'
   459  00067E  67                 	db	103	;'g'
   460  00067F  69                 	db	105	;'i'
   461  000680  6E                 	db	110	;'n'
   462  000681  20                 	db	32
   463  000682  46                 	db	70	;'F'
   464  000683  61                 	db	97	;'a'
   465  000684  69                 	db	105	;'i'
   466  000685  6C                 	db	108	;'l'
   467  000686  65                 	db	101	;'e'
   468  000687  64                 	db	100	;'d'
   469  000688  00                 	db	0
   470  000689                     STR_7:
   471  000689  61                 	db	97	;'a'
   472  00068A  74                 	db	116	;'t'
   473  00068B  74                 	db	116	;'t'
   474  00068C  65                 	db	101	;'e'
   475  00068D  6D                 	db	109	;'m'
   476  00068E  70                 	db	112	;'p'
   477  00068F  74                 	db	116	;'t'
   478  000690  20                 	db	32
   479  000691  72                 	db	114	;'r'
   480  000692  65                 	db	101	;'e'
   481  000693  6D                 	db	109	;'m'
   482  000694  00                 	db	0
   483  000695                     STR_10:
   484  000695  41                 	db	65	;'A'
   485  000696  6C                 	db	108	;'l'
   486  000697  6C                 	db	108	;'l'
   487  000698  20                 	db	32
   488  000699  6C                 	db	108	;'l'
   489  00069A  6F                 	db	111	;'o'
   490  00069B  67                 	db	103	;'g'
   491  00069C  73                 	db	115	;'s'
   492  00069D  00                 	db	0
   493  00069E                     STR_11:
   494  00069E  43                 	db	67	;'C'
   495  00069F  6C                 	db	108	;'l'
   496  0006A0  65                 	db	101	;'e'
   497  0006A1  61                 	db	97	;'a'
   498  0006A2  72                 	db	114	;'r'
   499  0006A3  65                 	db	101	;'e'
   500  0006A4  64                 	db	100	;'d'
   501  0006A5  00                 	db	0
   502  0006A6                     STR_9:
   503  0006A6  4E                 	db	78	;'N'
   504  0006A7  6F                 	db	111	;'o'
   505  0006A8  20                 	db	32
   506  0006A9  6C                 	db	108	;'l'
   507  0006AA  6F                 	db	111	;'o'
   508  0006AB  67                 	db	103	;'g'
   509  0006AC  73                 	db	115	;'s'
   510  0006AD  00                 	db	0
   511  0006AE                     STR_8:
   512  0006AE  4D                 	db	77	;'M'
   513  0006AF  79                 	db	121	;'y'
   514  0006B0  20                 	db	32
   515  0006B1  6C                 	db	108	;'l'
   516  0006B2  6F                 	db	111	;'o'
   517  0006B3  67                 	db	103	;'g'
   518  0006B4  73                 	db	115	;'s'
   519  0006B5  00                 	db	0
   520  0006B6  00                 	db	0	; dummy byte at the end
   521  0000                     
   522                           ; #config settings
   523                           
   524                           	psect	cinit
   525  0025E6                     __pcinit:
   526                           	callstack 0
   527  0025E6                     start_initialization:
   528                           	callstack 0
   529  0025E6                     __initialization:
   530                           	callstack 0
   531                           
   532                           ; Initialize objects allocated to BANK1 (109 bytes)
   533                           ; load TBLPTR registers with __pidataBANK1
   534  0025E6  0E5A               	movlw	low __pidataBANK1
   535  0025E8  6EF6               	movwf	tblptrl,c
   536  0025EA  0E26               	movlw	high __pidataBANK1
   537  0025EC  6EF7               	movwf	tblptrh,c
   538  0025EE  0E00               	movlw	low (__pidataBANK1 shr (0+16))
   539  0025F0  6EF8               	movwf	tblptru,c
   540  0025F2  EE01  F000         	lfsr	0,__pdataBANK1
   541  0025F6  EE10 F06D          	lfsr	1,109
   542  0025FA                     copy_data0:
   543  0025FA  0009               	tblrd		*+
   544  0025FC  CFF5 FFEE          	movff	tablat,postinc0
   545  002600  50E5               	movf	postdec1,w,c
   546  002602  50E1               	movf	fsr1l,w,c
   547  002604  E1FA               	bnz	copy_data0
   548                           
   549                           ; Initialize objects allocated to BANK0 (13 bytes)
   550                           ; load TBLPTR registers with __pidataBANK0
   551  002606  0E5E               	movlw	low __pidataBANK0
   552  002608  6EF6               	movwf	tblptrl,c
   553  00260A  0E2A               	movlw	high __pidataBANK0
   554  00260C  6EF7               	movwf	tblptrh,c
   555  00260E  0E00               	movlw	low (__pidataBANK0 shr (0+16))
   556  002610  6EF8               	movwf	tblptru,c
   557  002612  EE00  F0E5         	lfsr	0,__pdataBANK0
   558  002616  EE10 F00D          	lfsr	1,13
   559  00261A                     copy_data1:
   560  00261A  0009               	tblrd		*+
   561  00261C  CFF5 FFEE          	movff	tablat,postinc0
   562  002620  50E5               	movf	postdec1,w,c
   563  002622  50E1               	movf	fsr1l,w,c
   564  002624  E1FA               	bnz	copy_data1
   565                           
   566                           ; Initialize objects allocated to COMRAM (1 bytes)
   567                           ; load TBLPTR registers with __pidataCOMRAM
   568  002626  0EB6               	movlw	low __pidataCOMRAM
   569  002628  6EF6               	movwf	tblptrl,c
   570  00262A  0E2A               	movlw	high __pidataCOMRAM
   571  00262C  6EF7               	movwf	tblptrh,c
   572  00262E  0E00               	movlw	low (__pidataCOMRAM shr (0+16))
   573  002630  6EF8               	movwf	tblptru,c
   574  002632  0009               	tblrd		*+	;fetch initializer
   575  002634  CFF5 F05F          	movff	tablat,__pdataCOMRAM
   576                           
   577                           ; Clear objects allocated to BANK0 (47 bytes)
   578  002638  EE00  F0B6         	lfsr	0,__pbssBANK0
   579  00263C  0E2F               	movlw	47
   580  00263E                     clear_0:
   581  00263E  6AEE               	clrf	postinc0,c
   582  002640  06E8               	decf	wreg,f,c
   583  002642  E1FD               	bnz	clear_0
   584                           
   585                           ; Clear objects allocated to COMRAM (6 bytes)
   586  002644  6A5E               	clrf	(__pbssCOMRAM+5)& (0+255),c
   587  002646  6A5D               	clrf	(__pbssCOMRAM+4)& (0+255),c
   588  002648  6A5C               	clrf	(__pbssCOMRAM+3)& (0+255),c
   589  00264A  6A5B               	clrf	(__pbssCOMRAM+2)& (0+255),c
   590  00264C  6A5A               	clrf	(__pbssCOMRAM+1)& (0+255),c
   591  00264E  6A59               	clrf	__pbssCOMRAM& (0+255),c
   592  002650                     end_of_initialization:
   593                           	callstack 0
   594  002650                     __end_of__initialization:
   595                           	callstack 0
   596  002650  0E00               	movlw	low (__Lmediumconst shr (0+16))
   597  002652  6EF8               	movwf	tblptru,c
   598  002654  0100               	movlb	0
   599  002656  EFA2  F007         	goto	_main	;jump to C main() function
   600                           
   601                           	psect	bssCOMRAM
   602  000059                     __pbssCOMRAM:
   603                           	callstack 0
   604  000059                     _i:
   605                           	callstack 0
   606  000059                     	ds	1
   607  00005A                     set_time@j:
   608                           	callstack 0
   609  00005A                     	ds	1
   610  00005B                     check_pssd@i:
   611                           	callstack 0
   612  00005B                     	ds	1
   613  00005C                     _min:
   614                           	callstack 0
   615  00005C                     	ds	1
   616  00005D                     _h:
   617                           	callstack 0
   618  00005D                     	ds	1
   619  00005E                     _sec:
   620                           	callstack 0
   621  00005E                     	ds	1
   622                           
   623                           	psect	dataCOMRAM
   624  00005F                     __pdataCOMRAM:
   625                           	callstack 0
   626  00005F                     _event_flag:
   627                           	callstack 0
   628  00005F                     	ds	1
   629                           
   630                           	psect	bssBANK0
   631  0000B6                     __pbssBANK0:
   632                           	callstack 0
   633  0000B6                     	ds	17
   634  0000C7                     _time6:
   635                           	callstack 0
   636  0000C7                     	ds	2
   637  0000C9                     _long_press:
   638                           	callstack 0
   639  0000C9                     	ds	2
   640  0000CB                     set_time@t:
   641                           	callstack 0
   642  0000CB                     	ds	2
   643  0000CD                     set_time@long_press:
   644                           	callstack 0
   645  0000CD                     	ds	2
   646  0000CF                     login_screen@long_press:
   647                           	callstack 0
   648  0000CF                     	ds	2
   649  0000D1                     view_log@i:
   650                           	callstack 0
   651  0000D1                     	ds	1
   652  0000D2                     login_screen@flag:
   653                           	callstack 0
   654  0000D2                     	ds	1
   655  0000D3                     login_screen@i:
   656                           	callstack 0
   657  0000D3                     	ds	1
   658  0000D4                     check_pssd@t:
   659                           	callstack 0
   660  0000D4                     	ds	1
   661  0000D5                     _time1:
   662                           	callstack 0
   663  0000D5                     	ds	1
   664  0000D6                     _r_pssd:
   665                           	callstack 0
   666  0000D6                     	ds	5
   667  0000DB                     _pssd:
   668                           	callstack 0
   669  0000DB                     	ds	5
   670  0000E0                     check_pssd@pssd:
   671                           	callstack 0
   672  0000E0                     	ds	5
   673                           
   674                           	psect	dataBANK0
   675  0000E5                     __pdataBANK0:
   676                           	callstack 0
   677  0000E5                     _flag:
   678                           	callstack 0
   679  0000E5                     	ds	1
   680  0000E6                     check_pssd@attempt:
   681                           	callstack 0
   682  0000E6                     	ds	1
   683  0000E7                     _k:
   684                           	callstack 0
   685  0000E7                     	ds	1
   686  0000E8                     read_key@once:
   687                           	callstack 0
   688  0000E8                     	ds	1
   689  0000E9                     _time:
   690                           	callstack 0
   691  0000E9                     	ds	9
   692                           
   693                           	psect	dataBANK1
   694  000100                     __pdataBANK1:
   695                           	callstack 0
   696  000100                     login_screen@F10729:
   697                           	callstack 0
   698  000100                     	ds	85
   699  000155                     main@F10708:
   700                           	callstack 0
   701  000155                     	ds	24
   702                           
   703                           	psect	cstackBANK0
   704  000060                     __pcstackBANK0:
   705                           	callstack 0
   706  000060                     login_screen@arr:
   707                           	callstack 0
   708                           
   709                           ; 85 bytes @ 0x0
   710  000060                     	ds	85
   711  0000B5                     login_screen@key:
   712                           	callstack 0
   713                           
   714                           ; 1 bytes @ 0x55
   715  0000B5                     	ds	1
   716                           
   717                           	psect	cstackCOMRAM
   718  000001                     __pcstackCOMRAM:
   719                           	callstack 0
   720  000001                     ?_read_adc:
   721                           	callstack 0
   722  000001                     ?_strncmp:
   723                           	callstack 0
   724  000001                     ?___awdiv:
   725                           	callstack 0
   726  000001                     clcd_write@control_bit:
   727                           	callstack 0
   728  000001                     read_key@state:
   729                           	callstack 0
   730  000001                     write_to_eeprom@data:
   731                           	callstack 0
   732  000001                     read_to_eeprom@address:
   733                           	callstack 0
   734  000001                     i2c_write@data:
   735                           	callstack 0
   736  000001                     putch@byte:
   737                           	callstack 0
   738  000001                     ___awdiv@dividend:
   739                           	callstack 0
   740  000001                     strncmp@_l:
   741                           	callstack 0
   742  000001                     strncpy@d:
   743                           	callstack 0
   744                           
   745                           ; 2 bytes @ 0x0
   746  000001                     	ds	1
   747  000002                     clcd_write@byte:
   748                           	callstack 0
   749  000002                     read_key@key:
   750                           	callstack 0
   751  000002                     write_to_eeprom@address:
   752                           	callstack 0
   753  000002                     write_ds1307@data:
   754                           	callstack 0
   755  000002                     read_ds1307@address:
   756                           	callstack 0
   757  000002                     write_external_eeprom@data:
   758                           	callstack 0
   759  000002                     read_external_eeprom@address:
   760                           	callstack 0
   761  000002                     puts@s:
   762                           	callstack 0
   763                           
   764                           ; 2 bytes @ 0x1
   765  000002                     	ds	1
   766  000003                     ??_init_clcd:
   767  000003                     ??_read_adc:
   768  000003                     write_ds1307@address:
   769                           	callstack 0
   770  000003                     read_ds1307@data:
   771                           	callstack 0
   772  000003                     read_external_eeprom@data:
   773                           	callstack 0
   774  000003                     clcd_print@data:
   775                           	callstack 0
   776  000003                     write_external_eeprom@i:
   777                           	callstack 0
   778  000003                     ___awdiv@divisor:
   779                           	callstack 0
   780  000003                     strncmp@_r:
   781                           	callstack 0
   782  000003                     strncpy@s:
   783                           	callstack 0
   784                           
   785                           ; 2 bytes @ 0x2
   786  000003                     	ds	1
   787  000004                     init_ds1307@dummy:
   788                           	callstack 0
   789                           
   790                           ; 1 bytes @ 0x3
   791  000004                     	ds	1
   792  000005                     clcd_print@addr:
   793                           	callstack 0
   794  000005                     write_external_eeprom@address:
   795                           	callstack 0
   796  000005                     ___awdiv@counter:
   797                           	callstack 0
   798  000005                     strncmp@n:
   799                           	callstack 0
   800  000005                     strncpy@n:
   801                           	callstack 0
   802                           
   803                           ; 2 bytes @ 0x4
   804  000005                     	ds	1
   805  000006                     ??_view_log:
   806  000006                     ??_download_log:
   807  000006                     ??_clear_log:
   808  000006                     read_adc@channel:
   809                           	callstack 0
   810  000006                     ___awdiv@sign:
   811                           	callstack 0
   812  000006                     read_rtc@time:
   813                           	callstack 0
   814                           
   815                           ; 2 bytes @ 0x5
   816  000006                     	ds	1
   817  000007                     ??_strncmp:
   818  000007                     ?___xxtofl:
   819                           	callstack 0
   820  000007                     ___awdiv@quotient:
   821                           	callstack 0
   822  000007                     strncpy@cp:
   823                           	callstack 0
   824  000007                     ___xxtofl@val:
   825                           	callstack 0
   826  000007                     view_log@ch:
   827                           	callstack 0
   828                           
   829                           ; 16 bytes @ 0x6
   830  000007                     	ds	1
   831  000008                     ??_read_rtc:
   832  000008                     download_log@ch:
   833                           	callstack 0
   834                           
   835                           ; 17 bytes @ 0x7
   836  000008                     	ds	1
   837  000009                     ?___awmod:
   838                           	callstack 0
   839  000009                     ___awmod@dividend:
   840                           	callstack 0
   841  000009                     strncmp@l:
   842                           	callstack 0
   843                           
   844                           ; 2 bytes @ 0x8
   845  000009                     	ds	2
   846  00000B                     ??___xxtofl:
   847  00000B                     ___awmod@divisor:
   848                           	callstack 0
   849  00000B                     strncmp@r:
   850                           	callstack 0
   851                           
   852                           ; 2 bytes @ 0xA
   853  00000B                     	ds	2
   854  00000D                     ___awmod@counter:
   855                           	callstack 0
   856                           
   857                           ; 1 bytes @ 0xC
   858  00000D                     	ds	1
   859  00000E                     ___awmod@sign:
   860                           	callstack 0
   861                           
   862                           ; 1 bytes @ 0xD
   863  00000E                     	ds	1
   864  00000F                     clcd_print_ch@addr:
   865                           	callstack 0
   866  00000F                     ___xxtofl@sign:
   867                           	callstack 0
   868  00000F                     log_event@event:
   869                           	callstack 0
   870                           
   871                           ; 2 bytes @ 0xE
   872  00000F                     	ds	1
   873  000010                     clcd_print_ch@data:
   874                           	callstack 0
   875  000010                     ___xxtofl@exp:
   876                           	callstack 0
   877                           
   878                           ; 1 bytes @ 0xF
   879  000010                     	ds	1
   880  000011                     ??_check_pssd:
   881  000011                     ??_login_screen:
   882  000011                     ??_set_time:
   883  000011                     ??_change_pssd:
   884  000011                     log_event@speed:
   885                           	callstack 0
   886  000011                     display@event:
   887                           	callstack 0
   888  000011                     ___xxtofl@arg:
   889                           	callstack 0
   890                           
   891                           ; 4 bytes @ 0x10
   892  000011                     	ds	1
   893  000012                     log_event@log:
   894                           	callstack 0
   895                           
   896                           ; 16 bytes @ 0x11
   897  000012                     	ds	1
   898  000013                     display@speed:
   899                           	callstack 0
   900  000013                     set_time@num:
   901                           	callstack 0
   902  000013                     change_pssd@key:
   903                           	callstack 0
   904                           
   905                           ; 1 bytes @ 0x12
   906  000013                     	ds	1
   907  000014                     set_time@key:
   908                           	callstack 0
   909  000014                     change_pssd@i:
   910                           	callstack 0
   911                           
   912                           ; 2 bytes @ 0x13
   913  000014                     	ds	1
   914  000015                     ?___fldiv:
   915                           	callstack 0
   916  000015                     ___fldiv@b:
   917                           	callstack 0
   918  000015                     check_pssd@s_pssd:
   919                           	callstack 0
   920                           
   921                           ; 5 bytes @ 0x14
   922  000015                     	ds	2
   923  000017                     view_log@key:
   924                           	callstack 0
   925                           
   926                           ; 1 bytes @ 0x16
   927  000017                     	ds	1
   928  000018                     view_log@j:
   929                           	callstack 0
   930                           
   931                           ; 2 bytes @ 0x17
   932  000018                     	ds	1
   933  000019                     download_log@i:
   934                           	callstack 0
   935  000019                     ___fldiv@a:
   936                           	callstack 0
   937                           
   938                           ; 4 bytes @ 0x18
   939  000019                     	ds	1
   940  00001A                     download_log@j:
   941                           	callstack 0
   942  00001A                     check_pssd@i_346:
   943                           	callstack 0
   944                           
   945                           ; 4 bytes @ 0x19
   946  00001A                     	ds	3
   947  00001D                     ??___fldiv:
   948                           
   949                           ; 1 bytes @ 0x1C
   950  00001D                     	ds	1
   951  00001E                     check_pssd@key:
   952                           	callstack 0
   953                           
   954                           ; 1 bytes @ 0x1D
   955  00001E                     	ds	1
   956  00001F                     check_pssd@j:
   957                           	callstack 0
   958                           
   959                           ; 1 bytes @ 0x1E
   960  00001F                     	ds	2
   961  000021                     ___fldiv@rem:
   962                           	callstack 0
   963                           
   964                           ; 4 bytes @ 0x20
   965  000021                     	ds	1
   966  000022                     log_event@i_366:
   967                           	callstack 0
   968                           
   969                           ; 1 bytes @ 0x21
   970  000022                     	ds	3
   971  000025                     ___fldiv@sign:
   972                           	callstack 0
   973                           
   974                           ; 1 bytes @ 0x24
   975  000025                     	ds	1
   976  000026                     ___fldiv@new_exp:
   977                           	callstack 0
   978                           
   979                           ; 2 bytes @ 0x25
   980  000026                     	ds	2
   981  000028                     ___fldiv@grs:
   982                           	callstack 0
   983                           
   984                           ; 4 bytes @ 0x27
   985  000028                     	ds	4
   986  00002C                     ___fldiv@bexp:
   987                           	callstack 0
   988                           
   989                           ; 1 bytes @ 0x2B
   990  00002C                     	ds	1
   991  00002D                     ___fldiv@aexp:
   992                           	callstack 0
   993                           
   994                           ; 1 bytes @ 0x2C
   995  00002D                     	ds	1
   996  00002E                     ?___fltol:
   997                           	callstack 0
   998  00002E                     ___fltol@f1:
   999                           	callstack 0
  1000                           
  1001                           ; 4 bytes @ 0x2D
  1002  00002E                     	ds	4
  1003  000032                     ??___fltol:
  1004                           
  1005                           ; 1 bytes @ 0x31
  1006  000032                     	ds	4
  1007  000036                     ___fltol@sign1:
  1008                           	callstack 0
  1009                           
  1010                           ; 1 bytes @ 0x35
  1011  000036                     	ds	1
  1012  000037                     ___fltol@exp1:
  1013                           	callstack 0
  1014                           
  1015                           ; 1 bytes @ 0x36
  1016  000037                     	ds	1
  1017  000038                     ??_main:
  1018                           
  1019                           ; 1 bytes @ 0x37
  1020  000038                     	ds	2
  1021  00003A                     main@ev:
  1022                           	callstack 0
  1023                           
  1024                           ; 24 bytes @ 0x39
  1025  00003A                     	ds	24
  1026  000052                     main@i_158:
  1027                           	callstack 0
  1028                           
  1029                           ; 2 bytes @ 0x51
  1030  000052                     	ds	2
  1031  000054                     main@i_157:
  1032                           	callstack 0
  1033                           
  1034                           ; 1 bytes @ 0x53
  1035  000054                     	ds	1
  1036  000055                     main@s_flag:
  1037                           	callstack 0
  1038                           
  1039                           ; 1 bytes @ 0x54
  1040  000055                     	ds	1
  1041  000056                     main@speed:
  1042                           	callstack 0
  1043                           
  1044                           ; 1 bytes @ 0x55
  1045  000056                     	ds	1
  1046  000057                     main@i:
  1047                           	callstack 0
  1048                           
  1049                           ; 1 bytes @ 0x56
  1050  000057                     	ds	1
  1051  000058                     main@key:
  1052                           	callstack 0
  1053                           
  1054                           ; 1 bytes @ 0x57
  1055  000058                     	ds	1
  1056                           
  1057 ;;
  1058 ;;Main: autosize = 0, tempsize = 2, incstack = 0, save=0
  1059 ;;
  1060 ;; *************** function _main *****************
  1061 ;; Defined at:
  1062 ;;		line 22 in file "main.c"
  1063 ;; Parameters:    Size  Location     Type
  1064 ;;		None
  1065 ;; Auto vars:     Size  Location     Type
  1066 ;;  i               2   81[COMRAM] int 
  1067 ;;  i               1   83[COMRAM] unsigned char 
  1068 ;;  ev             24   57[COMRAM] unsigned char [3][8]
  1069 ;;  key             1   87[COMRAM] unsigned char 
  1070 ;;  i               1   86[COMRAM] unsigned char 
  1071 ;;  speed           1   85[COMRAM] unsigned char 
  1072 ;;  s_flag          1   84[COMRAM] unsigned char 
  1073 ;;  flag            1    0        unsigned char 
  1074 ;;  long_press      1    0        unsigned char 
  1075 ;;  key1            1    0        unsigned char 
  1076 ;;  l               1    0        unsigned char 
  1077 ;; Return value:  Size  Location     Type
  1078 ;;                  1    wreg      void 
  1079 ;; Registers used:
  1080 ;;		wreg, fsr0l, fsr0h, fsr1l, fsr1h, fsr2l, fsr2h, status,2, status,0, tblptrl, tblptrh, tblptru, prodl, prodh, cstack
  1081 ;; Tracked objects:
  1082 ;;		On entry : 0/0
  1083 ;;		On exit  : 0/0
  1084 ;;		Unchanged: 0/0
  1085 ;; Data sizes:     COMRAM   BANK0   BANK1   BANK2   BANK3   BANK4   BANK5
  1086 ;;      Params:         0       0       0       0       0       0       0
  1087 ;;      Locals:        31       0       0       0       0       0       0
  1088 ;;      Temps:          2       0       0       0       0       0       0
  1089 ;;      Totals:        33       0       0       0       0       0       0
  1090 ;;Total ram usage:       33 bytes
  1091 ;; Hardware stack levels required when called: 6
  1092 ;; This function calls:
  1093 ;;		___awdiv
  1094 ;;		___awmod
  1095 ;;		___fldiv
  1096 ;;		___fltol
  1097 ;;		___xxtofl
  1098 ;;		_change_pssd
  1099 ;;		_check_pssd
  1100 ;;		_clcd_print
  1101 ;;		_clcd_print_ch
  1102 ;;		_clcd_write
  1103 ;;		_clear_log
  1104 ;;		_display
  1105 ;;		_download_log
  1106 ;;		_get_time
  1107 ;;		_init_config
  1108 ;;		_log_event
  1109 ;;		_login_screen
  1110 ;;		_read_adc
  1111 ;;		_read_key
  1112 ;;		_set_time
  1113 ;;		_view_log
  1114 ;;		_write_to_eeprom
  1115 ;; This function is called by:
  1116 ;;		Startup code after reset
  1117 ;; This function uses a non-reentrant model
  1118 ;;
  1119                           
  1120                           	psect	text0
  1121  000F44                     __ptext0:
  1122                           	callstack 0
  1123  000F44                     _main:
  1124                           	callstack 25
  1125  000F44                     
  1126                           ;main.c: 23:     init_config();
  1127  000F44  ECE7  F014         	call	_init_config	;wreg free
  1128  000F48                     
  1129                           ;main.c: 24:     unsigned char ev[][3]={"ON","GR","GN","G1","G2","G3","G4","C "},key,i =
      +                           0,speed = 0,s_flag = 1,l,long_press=0,flag=0,key1;
  1130  000F48  EE21  F055         	lfsr	2,main@F10708
  1131  000F4C  EE10  F03A         	lfsr	1,main@ev
  1132  000F50  0E17               	movlw	23
  1133  000F52                     u3331:
  1134  000F52  CFDB FFE3          	movff	plusw2,plusw1
  1135  000F56  06E8               	decf	wreg,f,c
  1136  000F58  E2FC               	bc	u3331
  1137  000F5A  0E00               	movlw	0
  1138  000F5C  6E57               	movwf	main@i^0,c
  1139  000F5E  0E01               	movlw	1
  1140  000F60  6E55               	movwf	main@s_flag^0,c
  1141  000F62                     
  1142                           ;main.c: 25:     log_event(ev[0],speed);
  1143  000F62  0E3A               	movlw	low main@ev
  1144  000F64  6E0F               	movwf	log_event@event^0,c
  1145  000F66  0E00               	movlw	high main@ev
  1146  000F68  6E10               	movwf	(log_event@event+1)^0,c
  1147  000F6A  0E00               	movlw	0
  1148  000F6C  6E11               	movwf	log_event@speed^0,c
  1149  000F6E  EC34  F010         	call	_log_event	;wreg free
  1150  000F72                     
  1151                           ;main.c: 27:     for(char i=161; i<165 ; i++)
  1152  000F72  0EA1               	movlw	161
  1153  000F74  6E54               	movwf	main@i_157^0,c
  1154  000F76                     l3944:
  1155                           
  1156                           ;main.c: 28:     {;main.c: 29:         write_to_eeprom(i,'0');
  1157  000F76  0E30               	movlw	48
  1158  000F78  6E01               	movwf	write_to_eeprom@data^0,c
  1159  000F7A  5054               	movf	main@i_157^0,w,c
  1160  000F7C  EC6E  F014         	call	_write_to_eeprom
  1161  000F80                     
  1162                           ;main.c: 30:     }
  1163  000F80  2A54               	incf	main@i_157^0,f,c
  1164  000F82  0EA4               	movlw	164
  1165  000F84  6454               	cpfsgt	main@i_157^0,c
  1166  000F86  EFC7  F007         	goto	u3341
  1167  000F8A  EFC9  F007         	goto	u3340
  1168  000F8E                     u3341:
  1169  000F8E  EFBB  F007         	goto	l3944
  1170  000F92                     u3340:
  1171  000F92                     l3950:
  1172                           
  1173                           ;main.c: 32:     {;main.c: 33:         speed = read_adc(4)/10.33;
  1174  000F92  0EAE               	movlw	174
  1175  000F94  6E19               	movwf	___fldiv@a^0,c
  1176  000F96  0E47               	movlw	71
  1177  000F98  6E1A               	movwf	(___fldiv@a+1)^0,c
  1178  000F9A  0E25               	movlw	37
  1179  000F9C  6E1B               	movwf	(___fldiv@a+2)^0,c
  1180  000F9E  0E41               	movlw	65
  1181  000FA0  6E1C               	movwf	(___fldiv@a+3)^0,c
  1182  000FA2  0E04               	movlw	4
  1183  000FA4  ECF3  F013         	call	_read_adc
  1184  000FA8  C001  F007         	movff	?_read_adc,___xxtofl@val
  1185  000FAC  C002  F008         	movff	?_read_adc+1,___xxtofl@val+1
  1186  000FB0  6A09               	clrf	(___xxtofl@val+2)^0,c
  1187  000FB2  6A0A               	clrf	(___xxtofl@val+3)^0,c
  1188  000FB4  0E00               	movlw	0
  1189  000FB6  EC5E  F00D         	call	___xxtofl
  1190  000FBA  C007  F015         	movff	?___xxtofl,___fldiv@b
  1191  000FBE  C008  F016         	movff	?___xxtofl+1,___fldiv@b+1
  1192  000FC2  C009  F017         	movff	?___xxtofl+2,___fldiv@b+2
  1193  000FC6  C00A  F018         	movff	?___xxtofl+3,___fldiv@b+3
  1194  000FCA  ECD5  F005         	call	___fldiv	;wreg free
  1195  000FCE  C015  F02E         	movff	?___fldiv,___fltol@f1
  1196  000FD2  C016  F02F         	movff	?___fldiv+1,___fltol@f1+1
  1197  000FD6  C017  F030         	movff	?___fldiv+2,___fltol@f1+2
  1198  000FDA  C018  F031         	movff	?___fldiv+3,___fltol@f1+3
  1199  000FDE  ECDA  F00E         	call	___fltol	;wreg free
  1200  000FE2  502E               	movf	?___fltol^0,w,c
  1201  000FE4  6E56               	movwf	main@speed^0,c
  1202                           
  1203                           ;main.c: 34:         key = read_key(2);
  1204  000FE6  0E02               	movlw	2
  1205  000FE8  ECB6  F012         	call	_read_key
  1206  000FEC  6E58               	movwf	main@key^0,c
  1207  000FEE                     
  1208                           ;main.c: 35:         for(int i = 1000; i--; );
  1209  000FEE  0E03               	movlw	3
  1210  000FF0  6E53               	movwf	(main@i_158+1)^0,c
  1211  000FF2  0EE8               	movlw	232
  1212  000FF4  6E52               	movwf	main@i_158^0,c
  1213  000FF6                     l3954:
  1214  000FF6  0652               	decf	main@i_158^0,f,c
  1215  000FF8  A0D8               	btfss	status,0,c
  1216  000FFA  0653               	decf	(main@i_158+1)^0,f,c
  1217  000FFC  2852               	incf	main@i_158^0,w,c
  1218  000FFE  E106               	bnz	u3351
  1219  001000  2853               	incf	(main@i_158+1)^0,w,c
  1220  001002  A4D8               	btfss	status,2,c
  1221  001004  EF06  F008         	goto	u3351
  1222  001008  EF08  F008         	goto	u3350
  1223  00100C                     u3351:
  1224  00100C  EFFB  F007         	goto	l3954
  1225  001010                     u3350:
  1226  001010                     
  1227                           ;main.c: 36:         if(key == 1)
  1228  001010  0458               	decf	main@key^0,w,c
  1229  001012  A4D8               	btfss	status,2,c
  1230  001014  EF0E  F008         	goto	u3361
  1231  001018  EF10  F008         	goto	u3360
  1232  00101C                     u3361:
  1233  00101C  EF26  F008         	goto	l3966
  1234  001020                     u3360:
  1235  001020                     
  1236                           ;main.c: 37:         {;main.c: 38:             if(event_flag != 10)
  1237  001020  0E0A               	movlw	10
  1238  001022  185F               	xorwf	_event_flag^0,w,c
  1239  001024  B4D8               	btfsc	status,2,c
  1240  001026  EF17  F008         	goto	u3371
  1241  00102A  EF19  F008         	goto	u3370
  1242  00102E                     u3371:
  1243  00102E  EF1A  F008         	goto	l3962
  1244  001032                     u3370:
  1245  001032                     
  1246                           ;main.c: 39:                 event_flag++;
  1247  001032  2A5F               	incf	_event_flag^0,f,c
  1248  001034                     l3962:
  1249                           
  1250                           ;main.c: 40:             i = 7;
  1251  001034  0E07               	movlw	7
  1252  001036  6E57               	movwf	main@i^0,c
  1253  001038                     
  1254                           ;main.c: 41:             log_event(ev[i],speed);
  1255  001038  0E4F               	movlw	low (main@ev+21)
  1256  00103A  6E0F               	movwf	log_event@event^0,c
  1257  00103C  0E00               	movlw	high (main@ev+21)
  1258  00103E  6E10               	movwf	(log_event@event+1)^0,c
  1259  001040  C056  F011         	movff	main@speed,log_event@speed
  1260  001044  EC34  F010         	call	_log_event	;wreg free
  1261                           
  1262                           ;main.c: 42:         }
  1263  001048  EF19  F009         	goto	l4032
  1264  00104C                     l3966:
  1265  00104C  0E02               	movlw	2
  1266  00104E  1858               	xorwf	main@key^0,w,c
  1267  001050  A4D8               	btfss	status,2,c
  1268  001052  EF2D  F008         	goto	u3381
  1269  001056  EF2F  F008         	goto	u3380
  1270  00105A                     u3381:
  1271  00105A  EF51  F008         	goto	l3976
  1272  00105E                     u3380:
  1273  00105E  0E06               	movlw	6
  1274  001060  1857               	xorwf	main@i^0,w,c
  1275  001062  B4D8               	btfsc	status,2,c
  1276  001064  EF36  F008         	goto	u3391
  1277  001068  EF38  F008         	goto	u3390
  1278  00106C                     u3391:
  1279  00106C  EF51  F008         	goto	l3976
  1280  001070                     u3390:
  1281  001070                     
  1282                           ;main.c: 44:         {;main.c: 45:             if(event_flag != 10)
  1283  001070  0E0A               	movlw	10
  1284  001072  185F               	xorwf	_event_flag^0,w,c
  1285  001074  B4D8               	btfsc	status,2,c
  1286  001076  EF3F  F008         	goto	u3401
  1287  00107A  EF41  F008         	goto	u3400
  1288  00107E                     u3401:
  1289  00107E  EF42  F008         	goto	l68
  1290  001082                     u3400:
  1291  001082                     
  1292                           ;main.c: 46:                 event_flag++;
  1293  001082  2A5F               	incf	_event_flag^0,f,c
  1294  001084                     l68:
  1295                           
  1296                           ;main.c: 47:             ++i;
  1297  001084  2A57               	incf	main@i^0,f,c
  1298  001086                     l3974:
  1299                           
  1300                           ;main.c: 48:             log_event(ev[i],speed);
  1301  001086  5057               	movf	main@i^0,w,c
  1302  001088  0D03               	mullw	3
  1303  00108A  0E3A               	movlw	low main@ev
  1304  00108C  24F3               	addwf	243,w,c
  1305  00108E  6E0F               	movwf	log_event@event^0,c
  1306  001090  0E00               	movlw	high main@ev
  1307  001092  20F4               	addwfc	prodh,w,c
  1308  001094  6E10               	movwf	(log_event@event+1)^0,c
  1309  001096  C056  F011         	movff	main@speed,log_event@speed
  1310  00109A  EC34  F010         	call	_log_event	;wreg free
  1311                           
  1312                           ;main.c: 49:         }
  1313  00109E  EF19  F009         	goto	l4032
  1314  0010A2                     l3976:
  1315  0010A2  0E03               	movlw	3
  1316  0010A4  1858               	xorwf	main@key^0,w,c
  1317  0010A6  A4D8               	btfss	status,2,c
  1318  0010A8  EF58  F008         	goto	u3411
  1319  0010AC  EF5A  F008         	goto	u3410
  1320  0010B0                     u3411:
  1321  0010B0  EF77  F008         	goto	l3988
  1322  0010B4                     u3410:
  1323  0010B4  0457               	decf	main@i^0,w,c
  1324  0010B6  B4D8               	btfsc	status,2,c
  1325  0010B8  EF60  F008         	goto	u3421
  1326  0010BC  EF62  F008         	goto	u3420
  1327  0010C0                     u3421:
  1328  0010C0  EF77  F008         	goto	l3988
  1329  0010C4                     u3420:
  1330  0010C4  5057               	movf	main@i^0,w,c
  1331  0010C6  B4D8               	btfsc	status,2,c
  1332  0010C8  EF68  F008         	goto	u3431
  1333  0010CC  EF6A  F008         	goto	u3430
  1334  0010D0                     u3431:
  1335  0010D0  EF77  F008         	goto	l3988
  1336  0010D4                     u3430:
  1337  0010D4                     
  1338                           ;main.c: 51:         {;main.c: 52:             if(event_flag != 10)
  1339  0010D4  0E0A               	movlw	10
  1340  0010D6  185F               	xorwf	_event_flag^0,w,c
  1341  0010D8  B4D8               	btfsc	status,2,c
  1342  0010DA  EF71  F008         	goto	u3441
  1343  0010DE  EF73  F008         	goto	u3440
  1344  0010E2                     u3441:
  1345  0010E2  EF74  F008         	goto	l71
  1346  0010E6                     u3440:
  1347  0010E6                     
  1348                           ;main.c: 53:                 event_flag++;
  1349  0010E6  2A5F               	incf	_event_flag^0,f,c
  1350  0010E8                     l71:
  1351                           
  1352                           ;main.c: 54:             --i;
  1353  0010E8  0657               	decf	main@i^0,f,c
  1354  0010EA  EF43  F008         	goto	l3974
  1355  0010EE                     l3988:
  1356  0010EE  0E0B               	movlw	11
  1357  0010F0  1858               	xorwf	main@key^0,w,c
  1358  0010F2  B4D8               	btfsc	status,2,c
  1359  0010F4  EF7E  F008         	goto	u3451
  1360  0010F8  EF80  F008         	goto	u3450
  1361  0010FC                     u3451:
  1362  0010FC  EF89  F008         	goto	l3992
  1363  001100                     u3450:
  1364  001100  0E0C               	movlw	12
  1365  001102  1858               	xorwf	main@key^0,w,c
  1366  001104  A4D8               	btfss	status,2,c
  1367  001106  EF87  F008         	goto	u3461
  1368  00110A  EF89  F008         	goto	u3460
  1369  00110E                     u3461:
  1370  00110E  EFA3  F008         	goto	l66
  1371  001112                     u3460:
  1372  001112                     l3992:
  1373  001112  0455               	decf	main@s_flag^0,w,c
  1374  001114  A4D8               	btfss	status,2,c
  1375  001116  EF8F  F008         	goto	u3471
  1376  00111A  EF91  F008         	goto	u3470
  1377  00111E                     u3471:
  1378  00111E  EFA3  F008         	goto	l66
  1379  001122                     u3470:
  1380  001122                     
  1381                           ;main.c: 58:         {;main.c: 59:             clcd_write(0x01, 0);
  1382  001122  0E00               	movlw	0
  1383  001124  6E01               	movwf	clcd_write@control_bit^0,c
  1384  001126  0E01               	movlw	1
  1385  001128  EC51  F014         	call	_clcd_write
  1386  00112C                     
  1387                           ;main.c: 60:             _delay((unsigned long)((500)*(20000000/4000000.0)));
  1388  00112C  0E04               	movlw	4
  1389  00112E  6E38               	movwf	??_main^0,c
  1390  001130  0E3E               	movlw	62
  1391  001132                     u3497:
  1392  001132  2EE8               	decfsz	wreg,f,c
  1393  001134  D7FE               	bra	u3497
  1394  001136  2E38               	decfsz	??_main^0,f,c
  1395  001138  D7FC               	bra	u3497
  1396  00113A                     
  1397                           ;main.c: 61:             s_flag = 2;
  1398  00113A  0E02               	movlw	2
  1399  00113C  6E55               	movwf	main@s_flag^0,c
  1400  00113E                     
  1401                           ;main.c: 62:             key = 0;
  1402  00113E  0E00               	movlw	0
  1403  001140  6E58               	movwf	main@key^0,c
  1404  001142  EF19  F009         	goto	l4032
  1405  001146                     l66:
  1406                           
  1407                           ;main.c: 65:         switch(s_flag)
  1408  001146  EF19  F009         	goto	l4032
  1409  00114A                     l4002:
  1410  00114A  5057               	movf	main@i^0,w,c
  1411  00114C  0D03               	mullw	3
  1412  00114E  0E3A               	movlw	low main@ev
  1413  001150  24F3               	addwf	243,w,c
  1414  001152  6E11               	movwf	display@event^0,c
  1415  001154  0E00               	movlw	high main@ev
  1416  001156  20F4               	addwfc	prodh,w,c
  1417  001158  6E12               	movwf	(display@event+1)^0,c
  1418  00115A  C056  F013         	movff	main@speed,display@speed
  1419  00115E  EC9A  F013         	call	_display	;wreg free
  1420                           
  1421                           ;main.c: 68:                                 break;
  1422  001162  EFC9  F007         	goto	l3950
  1423  001166                     l4004:
  1424  001166  5058               	movf	main@key^0,w,c
  1425  001168  EC48  F009         	call	_check_pssd
  1426  00116C  6E55               	movwf	main@s_flag^0,c
  1427                           
  1428                           ;main.c: 70:                                 break;
  1429  00116E  EFC9  F007         	goto	l3950
  1430  001172                     l4006:
  1431  001172  5058               	movf	main@key^0,w,c
  1432  001174  EC59  F00C         	call	_login_screen
  1433  001178  6E55               	movwf	main@s_flag^0,c
  1434  00117A                     
  1435                           ;main.c: 72:                                 if(s_flag == 7)
  1436  00117A  0E07               	movlw	7
  1437  00117C  1855               	xorwf	main@s_flag^0,w,c
  1438  00117E  A4D8               	btfss	status,2,c
  1439  001180  EFC4  F008         	goto	u3481
  1440  001184  EFC6  F008         	goto	u3480
  1441  001188                     u3481:
  1442  001188  EFC9  F007         	goto	l3950
  1443  00118C                     u3480:
  1444  00118C                     
  1445                           ;main.c: 73:                                     get_time();
  1446  00118C  ECC4  F014         	call	_get_time	;wreg free
  1447  001190  EFC9  F007         	goto	l3950
  1448  001194                     l4012:
  1449  001194  5058               	movf	main@key^0,w,c
  1450  001196  EC38  F00E         	call	_view_log
  1451  00119A  6E55               	movwf	main@s_flag^0,c
  1452                           
  1453                           ;main.c: 76:                                 break;
  1454  00119C  EFC9  F007         	goto	l3950
  1455  0011A0                     l4014:
  1456  0011A0  ECA6  F011         	call	_download_log	;wreg free
  1457  0011A4                     
  1458                           ;main.c: 78:                                 s_flag = 1;
  1459  0011A4  0E01               	movlw	1
  1460  0011A6  6E55               	movwf	main@s_flag^0,c
  1461                           
  1462                           ;main.c: 79:                                 break;
  1463  0011A8  EFC9  F007         	goto	l3950
  1464  0011AC                     l4018:
  1465  0011AC  EC78  F012         	call	_clear_log	;wreg free
  1466  0011B0  6E55               	movwf	main@s_flag^0,c
  1467                           
  1468                           ;main.c: 81:                                 break;
  1469  0011B2  EFC9  F007         	goto	l3950
  1470  0011B6                     l4020:
  1471  0011B6  0E12               	movlw	low STR_1
  1472  0011B8  6E03               	movwf	clcd_print@data^0,c
  1473  0011BA  0E06               	movlw	high STR_1
  1474  0011BC  6E04               	movwf	(clcd_print@data+1)^0,c
  1475  0011BE  0E80               	movlw	128
  1476  0011C0  6E05               	movwf	clcd_print@addr^0,c
  1477  0011C2  EC64  F013         	call	_clcd_print	;wreg free
  1478  0011C6                     
  1479                           ;main.c: 83:                                 clcd_print(ev[i],(0xC0 + (10)));
  1480  0011C6  5057               	movf	main@i^0,w,c
  1481  0011C8  0D03               	mullw	3
  1482  0011CA  0E3A               	movlw	low main@ev
  1483  0011CC  24F3               	addwf	243,w,c
  1484  0011CE  6E03               	movwf	clcd_print@data^0,c
  1485  0011D0  0E00               	movlw	high main@ev
  1486  0011D2  20F4               	addwfc	prodh,w,c
  1487  0011D4  6E04               	movwf	(clcd_print@data+1)^0,c
  1488  0011D6  0ECA               	movlw	202
  1489  0011D8  6E05               	movwf	clcd_print@addr^0,c
  1490  0011DA  EC64  F013         	call	_clcd_print	;wreg free
  1491  0011DE                     
  1492                           ;main.c: 84:                                 clcd_print_ch((speed/10)+'0',(0xC0 + (14)))
      +                          ;
  1493  0011DE  0ECE               	movlw	206
  1494  0011E0  6E0F               	movwf	clcd_print_ch@addr^0,c
  1495  0011E2  C056  F001         	movff	main@speed,___awdiv@dividend
  1496  0011E6  6A02               	clrf	(___awdiv@dividend+1)^0,c
  1497  0011E8  0E00               	movlw	0
  1498  0011EA  6E04               	movwf	(___awdiv@divisor+1)^0,c
  1499  0011EC  0E0A               	movlw	10
  1500  0011EE  6E03               	movwf	___awdiv@divisor^0,c
  1501  0011F0  EC98  F010         	call	___awdiv	;wreg free
  1502  0011F4  5001               	movf	?___awdiv^0,w,c
  1503  0011F6  0F30               	addlw	48
  1504  0011F8  ECF4  F014         	call	_clcd_print_ch
  1505  0011FC                     
  1506                           ;main.c: 85:                                 clcd_print_ch((speed%10)+'0',(0xC0 + (15)))
      +                          ;
  1507  0011FC  0ECF               	movlw	207
  1508  0011FE  6E0F               	movwf	clcd_print_ch@addr^0,c
  1509  001200  C056  F009         	movff	main@speed,___awmod@dividend
  1510  001204  6A0A               	clrf	(___awmod@dividend+1)^0,c
  1511  001206  0E00               	movlw	0
  1512  001208  6E0C               	movwf	(___awmod@divisor+1)^0,c
  1513  00120A  0E0A               	movlw	10
  1514  00120C  6E0B               	movwf	___awmod@divisor^0,c
  1515  00120E  ECFA  F010         	call	___awmod	;wreg free
  1516  001212  5009               	movf	?___awmod^0,w,c
  1517  001214  0F30               	addlw	48
  1518  001216  ECF4  F014         	call	_clcd_print_ch
  1519  00121A                     
  1520                           ;main.c: 86:                                 s_flag = set_time(key);
  1521  00121A  5058               	movf	main@key^0,w,c
  1522  00121C  EC5C  F003         	call	_set_time
  1523  001220  6E55               	movwf	main@s_flag^0,c
  1524                           
  1525                           ;main.c: 87:                                 break;
  1526  001222  EFC9  F007         	goto	l3950
  1527  001226                     l4030:
  1528  001226  5058               	movf	main@key^0,w,c
  1529  001228  ECD6  F00A         	call	_change_pssd
  1530  00122C  6E55               	movwf	main@s_flag^0,c
  1531                           
  1532                           ;main.c: 89:         }
  1533  00122E  EFC9  F007         	goto	l3950
  1534  001232                     l4032:
  1535  001232  5055               	movf	main@s_flag^0,w,c
  1536  001234  6E38               	movwf	??_main^0,c
  1537  001236  6A39               	clrf	(??_main+1)^0,c
  1538                           
  1539                           ; Switch on 2 bytes has been partitioned into a top level switch of size 1, and 1 sub-sw
      +                          itches
  1540                           ; Switch size 1, requested type "simple"
  1541                           ; Number of cases is 1, Range of values is 0 to 0
  1542                           ; switch strategies available:
  1543                           ; Name         Instructions Cycles
  1544                           ; simple_byte            4     3 (average)
  1545                           ;	Chosen strategy is simple_byte
  1546  001238  5039               	movf	(??_main+1)^0,w,c
  1547  00123A  0A00               	xorlw	0	; case 0
  1548  00123C  B4D8               	btfsc	status,2,c
  1549  00123E  EF23  F009         	goto	l4058
  1550  001242  EFC9  F007         	goto	l3950
  1551  001246                     l4058:
  1552                           
  1553                           ; Switch size 1, requested type "simple"
  1554                           ; Number of cases is 8, Range of values is 1 to 8
  1555                           ; switch strategies available:
  1556                           ; Name         Instructions Cycles
  1557                           ; simple_byte           25    13 (average)
  1558                           ;	Chosen strategy is simple_byte
  1559  001246  5038               	movf	??_main^0,w,c
  1560  001248  0A01               	xorlw	1	; case 1
  1561  00124A  B4D8               	btfsc	status,2,c
  1562  00124C  EFA5  F008         	goto	l4002
  1563  001250  0A03               	xorlw	3	; case 2
  1564  001252  B4D8               	btfsc	status,2,c
  1565  001254  EFB3  F008         	goto	l4004
  1566  001258  0A01               	xorlw	1	; case 3
  1567  00125A  B4D8               	btfsc	status,2,c
  1568  00125C  EFB9  F008         	goto	l4006
  1569  001260  0A07               	xorlw	7	; case 4
  1570  001262  B4D8               	btfsc	status,2,c
  1571  001264  EFCA  F008         	goto	l4012
  1572  001268  0A01               	xorlw	1	; case 5
  1573  00126A  B4D8               	btfsc	status,2,c
  1574  00126C  EFD0  F008         	goto	l4014
  1575  001270  0A03               	xorlw	3	; case 6
  1576  001272  B4D8               	btfsc	status,2,c
  1577  001274  EFD6  F008         	goto	l4018
  1578  001278  0A01               	xorlw	1	; case 7
  1579  00127A  B4D8               	btfsc	status,2,c
  1580  00127C  EFDB  F008         	goto	l4020
  1581  001280  0A0F               	xorlw	15	; case 8
  1582  001282  B4D8               	btfsc	status,2,c
  1583  001284  EF13  F009         	goto	l4030
  1584  001288  EFC9  F007         	goto	l3950
  1585  00128C  EF00  F000         	goto	start
  1586  001290                     __end_of_main:
  1587                           	callstack 0
  1588                           
  1589 ;; *************** function _view_log *****************
  1590 ;; Defined at:
  1591 ;;		line 4 in file "logs.c"
  1592 ;; Parameters:    Size  Location     Type
  1593 ;;  key             1    wreg     unsigned char 
  1594 ;; Auto vars:     Size  Location     Type
  1595 ;;  key             1   22[COMRAM] unsigned char 
  1596 ;;  j               2   23[COMRAM] int 
  1597 ;;  ch             16    6[COMRAM] unsigned char [16]
  1598 ;; Return value:  Size  Location     Type
  1599 ;;                  1    wreg      unsigned char 
  1600 ;; Registers used:
  1601 ;;		wreg, fsr0l, fsr0h, fsr2l, fsr2h, status,2, status,0, tblptrl, tblptrh, tblptru, prodl, prodh, cstack
  1602 ;; Tracked objects:
  1603 ;;		On entry : 0/0
  1604 ;;		On exit  : 0/0
  1605 ;;		Unchanged: 0/0
  1606 ;; Data sizes:     COMRAM   BANK0   BANK1   BANK2   BANK3   BANK4   BANK5
  1607 ;;      Params:         0       0       0       0       0       0       0
  1608 ;;      Locals:        19       0       0       0       0       0       0
  1609 ;;      Temps:          1       0       0       0       0       0       0
  1610 ;;      Totals:        20       0       0       0       0       0       0
  1611 ;;Total ram usage:       20 bytes
  1612 ;; Hardware stack levels used: 1
  1613 ;; Hardware stack levels required when called: 4
  1614 ;; This function calls:
  1615 ;;		_clcd_print
  1616 ;;		_clcd_write
  1617 ;;		_read_external_eeprom
  1618 ;;		_read_key
  1619 ;; This function is called by:
  1620 ;;		_main
  1621 ;; This function uses a non-reentrant model
  1622 ;;
  1623                           
  1624                           	psect	text1
  1625  001C70                     __ptext1:
  1626                           	callstack 0
  1627  001C70                     _view_log:
  1628                           	callstack 26
  1629                           
  1630                           ;incstack = 0
  1631                           ;view_log@key stored from wreg
  1632  001C70  6E17               	movwf	view_log@key^0,c
  1633  001C72                     
  1634                           ;logs.c: 4: unsigned char view_log(unsigned char key);logs.c: 5: {;logs.c: 6:     static
      +                           unsigned char i;;logs.c: 7:     if(key == 12)
  1635  001C72  0E0C               	movlw	12
  1636  001C74  1817               	xorwf	view_log@key^0,w,c
  1637  001C76  A4D8               	btfss	status,2,c
  1638  001C78  EF40  F00E         	goto	u2421
  1639  001C7C  EF42  F00E         	goto	u2420
  1640  001C80                     u2421:
  1641  001C80  EF81  F00E         	goto	l3392
  1642  001C84                     u2420:
  1643  001C84                     
  1644                           ;logs.c: 8:     {;logs.c: 9:         long_press = 0;
  1645  001C84  0E00               	movlw	0
  1646  001C86  0100               	movlb	0	; () banked
  1647  001C88  6FCA               	movwf	(_long_press+1)& (0+255),b
  1648  001C8A  0E00               	movlw	0
  1649  001C8C  6FC9               	movwf	_long_press& (0+255),b
  1650                           
  1651                           ;logs.c: 10:         while(read_key(1) == 12)
  1652  001C8E  EF69  F00E         	goto	l3386
  1653  001C92                     l3374:
  1654                           
  1655                           ;logs.c: 11:         {;logs.c: 12:             if(++long_press == 50000)
  1656  001C92  0100               	movlb	0	; () banked
  1657  001C94  4BC9               	infsnz	_long_press& (0+255),f,b
  1658  001C96  2BCA               	incf	(_long_press+1)& (0+255),f,b
  1659  001C98  0E50               	movlw	80
  1660  001C9A  19C9               	xorwf	_long_press& (0+255),w,b
  1661  001C9C  E107               	bnz	u2431
  1662  001C9E  0EC3               	movlw	195
  1663  001CA0  19CA               	xorwf	(_long_press+1)& (0+255),w,b
  1664  001CA2  A4D8               	btfss	status,2,c
  1665  001CA4  EF56  F00E         	goto	u2431
  1666  001CA8  EF58  F00E         	goto	u2430
  1667  001CAC                     u2431:
  1668  001CAC  EF69  F00E         	goto	l3386
  1669  001CB0                     u2430:
  1670  001CB0                     
  1671                           ; BSR set to: 0
  1672                           ;logs.c: 13:             {;logs.c: 14:                 i = 0;
  1673  001CB0  0E00               	movlw	0
  1674  001CB2  6FD1               	movwf	view_log@i& (0+255),b
  1675  001CB4                     
  1676                           ; BSR set to: 0
  1677                           ;logs.c: 15:                 clcd_write(0x01, 0);
  1678  001CB4  0E00               	movlw	0
  1679  001CB6  6E01               	movwf	clcd_write@control_bit^0,c
  1680  001CB8  0E01               	movlw	1
  1681  001CBA  EC51  F014         	call	_clcd_write
  1682  001CBE                     
  1683                           ;logs.c: 16:                 _delay((unsigned long)((500)*(20000000/4000000.0)));
  1684  001CBE  0E04               	movlw	4
  1685  001CC0  6E06               	movwf	??_view_log^0,c
  1686  001CC2  0E3E               	movlw	62
  1687  001CC4                     u3507:
  1688  001CC4  2EE8               	decfsz	wreg,f,c
  1689  001CC6  D7FE               	bra	u3507
  1690  001CC8  2E06               	decfsz	??_view_log^0,f,c
  1691  001CCA  D7FC               	bra	u3507
  1692  001CCC                     
  1693                           ;logs.c: 17:                 return 1;
  1694  001CCC  0E01               	movlw	1
  1695  001CCE  EFD9  F00E         	goto	l501
  1696  001CD2                     l3386:
  1697                           
  1698                           ; BSR set to: 0
  1699                           ;logs.c: 10:         while(read_key(1) == 12)
  1700  001CD2  0E01               	movlw	1
  1701  001CD4  ECB6  F012         	call	_read_key
  1702  001CD8  0A0C               	xorlw	12
  1703  001CDA  B4D8               	btfsc	status,2,c
  1704  001CDC  EF72  F00E         	goto	u2441
  1705  001CE0  EF74  F00E         	goto	u2440
  1706  001CE4                     u2441:
  1707  001CE4  EF49  F00E         	goto	l3374
  1708  001CE8                     u2440:
  1709  001CE8                     
  1710                           ;logs.c: 20:         if(i < event_flag)
  1711  001CE8  505F               	movf	_event_flag^0,w,c
  1712  001CEA  0100               	movlb	0	; () banked
  1713  001CEC  5DD1               	subwf	view_log@i& (0+255),w,b
  1714  001CEE  B0D8               	btfsc	status,0,c
  1715  001CF0  EF7C  F00E         	goto	u2451
  1716  001CF4  EF7E  F00E         	goto	u2450
  1717  001CF8                     u2451:
  1718  001CF8  EF94  F00E         	goto	l3398
  1719  001CFC                     u2450:
  1720  001CFC                     
  1721                           ; BSR set to: 0
  1722                           ;logs.c: 21:         i++;
  1723  001CFC  2BD1               	incf	view_log@i& (0+255),f,b
  1724  001CFE  EF94  F00E         	goto	l3398
  1725  001D02                     l3392:
  1726  001D02  0E0B               	movlw	11
  1727  001D04  1817               	xorwf	view_log@key^0,w,c
  1728  001D06  A4D8               	btfss	status,2,c
  1729  001D08  EF88  F00E         	goto	u2461
  1730  001D0C  EF8A  F00E         	goto	u2460
  1731  001D10                     u2461:
  1732  001D10  EF94  F00E         	goto	l3398
  1733  001D14                     u2460:
  1734  001D14  0100               	movlb	0	; () banked
  1735  001D16  51D1               	movf	view_log@i& (0+255),w,b
  1736  001D18  B4D8               	btfsc	status,2,c
  1737  001D1A  EF91  F00E         	goto	u2471
  1738  001D1E  EF93  F00E         	goto	u2470
  1739  001D22                     u2471:
  1740  001D22  EF94  F00E         	goto	l3398
  1741  001D26                     u2470:
  1742  001D26                     
  1743                           ; BSR set to: 0
  1744                           ;logs.c: 24:     {;logs.c: 25:         i--;
  1745  001D26  07D1               	decf	view_log@i& (0+255),f,b
  1746  001D28                     l3398:
  1747                           
  1748                           ;logs.c: 27:     if(event_flag)
  1749  001D28  505F               	movf	_event_flag^0,w,c
  1750  001D2A  B4D8               	btfsc	status,2,c
  1751  001D2C  EF9A  F00E         	goto	u2481
  1752  001D30  EF9C  F00E         	goto	u2480
  1753  001D34                     u2481:
  1754  001D34  EFD0  F00E         	goto	l3414
  1755  001D38                     u2480:
  1756  001D38                     
  1757                           ;logs.c: 28:     {;logs.c: 29:         char ch[16];;logs.c: 30:         for(int j=0; j<1
      +                          6; j++)
  1758  001D38  0E00               	movlw	0
  1759  001D3A  6E19               	movwf	(view_log@j+1)^0,c
  1760  001D3C  0E00               	movlw	0
  1761  001D3E  6E18               	movwf	view_log@j^0,c
  1762  001D40                     l3406:
  1763                           
  1764                           ;logs.c: 31:         {;logs.c: 32:             ch[j] = read_external_eeprom((i*16)+j);
  1765  001D40  0E07               	movlw	low view_log@ch
  1766  001D42  2418               	addwf	view_log@j^0,w,c
  1767  001D44  6ED9               	movwf	fsr2l,c
  1768  001D46  0E00               	movlw	high view_log@ch
  1769  001D48  2019               	addwfc	(view_log@j+1)^0,w,c
  1770  001D4A  6EDA               	movwf	fsr2h,c
  1771  001D4C  0100               	movlb	0	; () banked
  1772  001D4E  51D1               	movf	view_log@i& (0+255),w,b
  1773  001D50  0D10               	mullw	16
  1774  001D52  50F3               	movf	243,w,c
  1775  001D54  2418               	addwf	view_log@j^0,w,c
  1776  001D56  EC9A  F014         	call	_read_external_eeprom
  1777  001D5A  6EDF               	movwf	indf2,c
  1778  001D5C                     
  1779                           ;logs.c: 33:         }
  1780  001D5C  4A18               	infsnz	view_log@j^0,f,c
  1781  001D5E  2A19               	incf	(view_log@j+1)^0,f,c
  1782  001D60  BE19               	btfsc	(view_log@j+1)^0,7,c
  1783  001D62  EFBC  F00E         	goto	u2491
  1784  001D66  5019               	movf	(view_log@j+1)^0,w,c
  1785  001D68  E109               	bnz	u2490
  1786  001D6A  0E10               	movlw	16
  1787  001D6C  5C18               	subwf	view_log@j^0,w,c
  1788  001D6E  A0D8               	btfss	status,0,c
  1789  001D70  EFBC  F00E         	goto	u2491
  1790  001D74  EFBE  F00E         	goto	u2490
  1791  001D78                     u2491:
  1792  001D78  EFA0  F00E         	goto	l3406
  1793  001D7C                     u2490:
  1794  001D7C                     
  1795                           ;logs.c: 34:         clcd_print("My logs",(0x80 + (5)));
  1796  001D7C  0EAE               	movlw	low STR_8
  1797  001D7E  6E03               	movwf	clcd_print@data^0,c
  1798  001D80  0E06               	movlw	high STR_8
  1799  001D82  6E04               	movwf	(clcd_print@data+1)^0,c
  1800  001D84  0E85               	movlw	133
  1801  001D86  6E05               	movwf	clcd_print@addr^0,c
  1802  001D88  EC64  F013         	call	_clcd_print	;wreg free
  1803                           
  1804                           ;logs.c: 35:         clcd_print(ch,(0xC0 + (0)));
  1805  001D8C  0E07               	movlw	low view_log@ch
  1806  001D8E  6E03               	movwf	clcd_print@data^0,c
  1807  001D90  0E00               	movlw	high view_log@ch
  1808  001D92  6E04               	movwf	(clcd_print@data+1)^0,c
  1809  001D94  0EC0               	movlw	192
  1810  001D96  6E05               	movwf	clcd_print@addr^0,c
  1811  001D98  EC64  F013         	call	_clcd_print	;wreg free
  1812                           
  1813                           ;logs.c: 36:     }
  1814  001D9C  EFD8  F00E         	goto	l3416
  1815  001DA0                     l3414:
  1816                           
  1817                           ;logs.c: 38:     {;logs.c: 39:         clcd_print("No logs",(0x80 + (5)));
  1818  001DA0  0EA6               	movlw	low STR_9
  1819  001DA2  6E03               	movwf	clcd_print@data^0,c
  1820  001DA4  0E06               	movlw	high STR_9
  1821  001DA6  6E04               	movwf	(clcd_print@data+1)^0,c
  1822  001DA8  0E85               	movlw	133
  1823  001DAA  6E05               	movwf	clcd_print@addr^0,c
  1824  001DAC  EC64  F013         	call	_clcd_print	;wreg free
  1825  001DB0                     l3416:
  1826                           
  1827                           ;logs.c: 41:     return 4;
  1828  001DB0  0E04               	movlw	4
  1829  001DB2                     l501:
  1830  001DB2  0012               	return		;funcret
  1831  001DB4                     __end_of_view_log:
  1832                           	callstack 0
  1833                           
  1834 ;; *************** function _set_time *****************
  1835 ;; Defined at:
  1836 ;;		line 210 in file "black_box.c"
  1837 ;; Parameters:    Size  Location     Type
  1838 ;;  key             1    wreg     unsigned char 
  1839 ;; Auto vars:     Size  Location     Type
  1840 ;;  key             1   19[COMRAM] unsigned char 
  1841 ;;  num             1   18[COMRAM] unsigned char 
  1842 ;; Return value:  Size  Location     Type
  1843 ;;                  1    wreg      unsigned char 
  1844 ;; Registers used:
  1845 ;;		wreg, status,2, status,0, cstack
  1846 ;; Tracked objects:
  1847 ;;		On entry : 0/0
  1848 ;;		On exit  : 0/0
  1849 ;;		Unchanged: 0/0
  1850 ;; Data sizes:     COMRAM   BANK0   BANK1   BANK2   BANK3   BANK4   BANK5
  1851 ;;      Params:         0       0       0       0       0       0       0
  1852 ;;      Locals:         2       0       0       0       0       0       0
  1853 ;;      Temps:          2       0       0       0       0       0       0
  1854 ;;      Totals:         4       0       0       0       0       0       0
  1855 ;;Total ram usage:        4 bytes
  1856 ;; Hardware stack levels used: 1
  1857 ;; Hardware stack levels required when called: 3
  1858 ;; This function calls:
  1859 ;;		___awdiv
  1860 ;;		___awmod
  1861 ;;		_clcd_print_ch
  1862 ;;		_read_key
  1863 ;;		_write_ds1307
  1864 ;; This function is called by:
  1865 ;;		_main
  1866 ;; This function uses a non-reentrant model
  1867 ;;
  1868                           
  1869                           	psect	text2
  1870  0006B8                     __ptext2:
  1871                           	callstack 0
  1872  0006B8                     _set_time:
  1873                           	callstack 27
  1874                           
  1875                           ;incstack = 0
  1876                           ;set_time@key stored from wreg
  1877  0006B8  6E14               	movwf	set_time@key^0,c
  1878  0006BA                     
  1879                           ;black_box.c: 210: unsigned char set_time(unsigned char key);black_box.c: 211: {;black_b
      +                          ox.c: 212:     char num;;black_box.c: 213:     static unsigned int long_press,t;;black_b
      +                          ox.c: 214:     static char j = 0;;black_box.c: 215:     if(key == 12)
  1880  0006BA  0E0C               	movlw	12
  1881  0006BC  1814               	xorwf	set_time@key^0,w,c
  1882  0006BE  A4D8               	btfss	status,2,c
  1883  0006C0  EF64  F003         	goto	u2541
  1884  0006C4  EF66  F003         	goto	u2540
  1885  0006C8                     u2541:
  1886  0006C8  EF9E  F003         	goto	l3488
  1887  0006CC                     u2540:
  1888  0006CC                     
  1889                           ;black_box.c: 216:     {;black_box.c: 217:         t=0;
  1890  0006CC  0E00               	movlw	0
  1891  0006CE  0100               	movlb	0	; () banked
  1892  0006D0  6FCC               	movwf	(set_time@t+1)& (0+255),b
  1893  0006D2  0E00               	movlw	0
  1894  0006D4  6FCB               	movwf	set_time@t& (0+255),b
  1895                           
  1896                           ;black_box.c: 218:         long_press = 0;
  1897  0006D6  0E00               	movlw	0
  1898  0006D8  6FCE               	movwf	(set_time@long_press+1)& (0+255),b
  1899  0006DA  0E00               	movlw	0
  1900  0006DC  6FCD               	movwf	set_time@long_press& (0+255),b
  1901                           
  1902                           ;black_box.c: 219:         while(read_key(1) == 12)
  1903  0006DE  EF83  F003         	goto	l3480
  1904  0006E2                     l3474:
  1905                           
  1906                           ;black_box.c: 220:         {;black_box.c: 221:             if(++long_press == 50000)
  1907  0006E2  0100               	movlb	0	; () banked
  1908  0006E4  4BCD               	infsnz	set_time@long_press& (0+255),f,b
  1909  0006E6  2BCE               	incf	(set_time@long_press+1)& (0+255),f,b
  1910  0006E8  0E50               	movlw	80
  1911  0006EA  19CD               	xorwf	set_time@long_press& (0+255),w,b
  1912  0006EC  E107               	bnz	u2551
  1913  0006EE  0EC3               	movlw	195
  1914  0006F0  19CE               	xorwf	(set_time@long_press+1)& (0+255),w,b
  1915  0006F2  A4D8               	btfss	status,2,c
  1916  0006F4  EF7E  F003         	goto	u2551
  1917  0006F8  EF80  F003         	goto	u2550
  1918  0006FC                     u2551:
  1919  0006FC  EF83  F003         	goto	l3480
  1920  000700                     u2550:
  1921  000700                     l3476:
  1922                           
  1923                           ;black_box.c: 222:             return 1;
  1924  000700  0E01               	movlw	1
  1925  000702  EFD4  F005         	goto	l308
  1926  000706                     l3480:
  1927                           
  1928                           ; BSR set to: 0
  1929                           ;black_box.c: 219:         while(read_key(1) == 12)
  1930  000706  0E01               	movlw	1
  1931  000708  ECB6  F012         	call	_read_key
  1932  00070C  0A0C               	xorlw	12
  1933  00070E  B4D8               	btfsc	status,2,c
  1934  000710  EF8C  F003         	goto	u2561
  1935  000714  EF8E  F003         	goto	u2560
  1936  000718                     u2561:
  1937  000718  EF71  F003         	goto	l3474
  1938  00071C                     u2560:
  1939  00071C                     
  1940                           ;black_box.c: 224:         if(j!= 2)
  1941  00071C  0E02               	movlw	2
  1942  00071E  185A               	xorwf	set_time@j^0,w,c
  1943  000720  B4D8               	btfsc	status,2,c
  1944  000722  EF95  F003         	goto	u2571
  1945  000726  EF97  F003         	goto	u2570
  1946  00072A                     u2571:
  1947  00072A  EF9A  F003         	goto	l3486
  1948  00072E                     u2570:
  1949  00072E                     
  1950                           ;black_box.c: 225:         j++;
  1951  00072E  2A5A               	incf	set_time@j^0,f,c
  1952  000730  EF27  F004         	goto	l3510
  1953  000734                     l3486:
  1954                           
  1955                           ;black_box.c: 227:             j=0;
  1956  000734  0E00               	movlw	0
  1957  000736  6E5A               	movwf	set_time@j^0,c
  1958  000738  EF27  F004         	goto	l3510
  1959  00073C                     l3488:
  1960  00073C  0E0B               	movlw	11
  1961  00073E  1814               	xorwf	set_time@key^0,w,c
  1962  000740  A4D8               	btfss	status,2,c
  1963  000742  EFA5  F003         	goto	u2581
  1964  000746  EFA7  F003         	goto	u2580
  1965  00074A                     u2581:
  1966  00074A  EF27  F004         	goto	l3510
  1967  00074E                     u2580:
  1968  00074E                     
  1969                           ;black_box.c: 230:     {;black_box.c: 231:         long_press = 0;
  1970  00074E  0E00               	movlw	0
  1971  000750  0100               	movlb	0	; () banked
  1972  000752  6FCE               	movwf	(set_time@long_press+1)& (0+255),b
  1973  000754  0E00               	movlw	0
  1974  000756  6FCD               	movwf	set_time@long_press& (0+255),b
  1975                           
  1976                           ;black_box.c: 232:         while(read_key(1) == 11)
  1977  000758  EF1C  F004         	goto	l3508
  1978  00075C                     l3492:
  1979                           
  1980                           ;black_box.c: 233:         {;black_box.c: 234:             if(++long_press == 50000)
  1981  00075C  0100               	movlb	0	; () banked
  1982  00075E  4BCD               	infsnz	set_time@long_press& (0+255),f,b
  1983  000760  2BCE               	incf	(set_time@long_press+1)& (0+255),f,b
  1984  000762  0E50               	movlw	80
  1985  000764  19CD               	xorwf	set_time@long_press& (0+255),w,b
  1986  000766  E107               	bnz	u2591
  1987  000768  0EC3               	movlw	195
  1988  00076A  19CE               	xorwf	(set_time@long_press+1)& (0+255),w,b
  1989  00076C  A4D8               	btfss	status,2,c
  1990  00076E  EFBB  F003         	goto	u2591
  1991  000772  EFBD  F003         	goto	u2590
  1992  000776                     u2591:
  1993  000776  EF1C  F004         	goto	l3508
  1994  00077A                     u2590:
  1995  00077A                     
  1996                           ; BSR set to: 0
  1997                           ;black_box.c: 235:             {;black_box.c: 236:                 num = ((sec/10)<<4) |
      +                           (sec%10);
  1998  00077A  C05E  F009         	movff	_sec,___awmod@dividend
  1999  00077E  6A0A               	clrf	(___awmod@dividend+1)^0,c
  2000  000780  0E00               	movlw	0
  2001  000782  6E0C               	movwf	(___awmod@divisor+1)^0,c
  2002  000784  0E0A               	movlw	10
  2003  000786  6E0B               	movwf	___awmod@divisor^0,c
  2004  000788  ECFA  F010         	call	___awmod	;wreg free
  2005  00078C  C009  F011         	movff	?___awmod,??_set_time
  2006  000790  C00A  F012         	movff	?___awmod+1,??_set_time+1
  2007  000794  C05E  F001         	movff	_sec,___awdiv@dividend
  2008  000798  6A02               	clrf	(___awdiv@dividend+1)^0,c
  2009  00079A  0E00               	movlw	0
  2010  00079C  6E04               	movwf	(___awdiv@divisor+1)^0,c
  2011  00079E  0E0A               	movlw	10
  2012  0007A0  6E03               	movwf	___awdiv@divisor^0,c
  2013  0007A2  EC98  F010         	call	___awdiv	;wreg free
  2014  0007A6  3801               	swapf	?___awdiv^0,w,c
  2015  0007A8  0BF0               	andlw	240
  2016  0007AA  1011               	iorwf	??_set_time^0,w,c
  2017  0007AC  6E13               	movwf	set_time@num^0,c
  2018  0007AE                     
  2019                           ;black_box.c: 237:                 write_ds1307(0x00,num);
  2020  0007AE  C013  F002         	movff	set_time@num,write_ds1307@data
  2021  0007B2  0E00               	movlw	0
  2022  0007B4  ECD8  F014         	call	_write_ds1307
  2023  0007B8                     
  2024                           ;black_box.c: 238:                 num = ((min/10)<<4) | (min%10);
  2025  0007B8  C05C  F009         	movff	_min,___awmod@dividend
  2026  0007BC  6A0A               	clrf	(___awmod@dividend+1)^0,c
  2027  0007BE  0E00               	movlw	0
  2028  0007C0  6E0C               	movwf	(___awmod@divisor+1)^0,c
  2029  0007C2  0E0A               	movlw	10
  2030  0007C4  6E0B               	movwf	___awmod@divisor^0,c
  2031  0007C6  ECFA  F010         	call	___awmod	;wreg free
  2032  0007CA  C009  F011         	movff	?___awmod,??_set_time
  2033  0007CE  C00A  F012         	movff	?___awmod+1,??_set_time+1
  2034  0007D2  C05C  F001         	movff	_min,___awdiv@dividend
  2035  0007D6  6A02               	clrf	(___awdiv@dividend+1)^0,c
  2036  0007D8  0E00               	movlw	0
  2037  0007DA  6E04               	movwf	(___awdiv@divisor+1)^0,c
  2038  0007DC  0E0A               	movlw	10
  2039  0007DE  6E03               	movwf	___awdiv@divisor^0,c
  2040  0007E0  EC98  F010         	call	___awdiv	;wreg free
  2041  0007E4  3801               	swapf	?___awdiv^0,w,c
  2042  0007E6  0BF0               	andlw	240
  2043  0007E8  1011               	iorwf	??_set_time^0,w,c
  2044  0007EA  6E13               	movwf	set_time@num^0,c
  2045                           
  2046                           ;black_box.c: 239:                 write_ds1307(0x01,num);
  2047  0007EC  C013  F002         	movff	set_time@num,write_ds1307@data
  2048  0007F0  0E01               	movlw	1
  2049  0007F2  ECD8  F014         	call	_write_ds1307
  2050  0007F6                     
  2051                           ;black_box.c: 240:                 num = ((h/10)<<4) | (h%10);
  2052  0007F6  C05D  F009         	movff	_h,___awmod@dividend
  2053  0007FA  6A0A               	clrf	(___awmod@dividend+1)^0,c
  2054  0007FC  0E00               	movlw	0
  2055  0007FE  6E0C               	movwf	(___awmod@divisor+1)^0,c
  2056  000800  0E0A               	movlw	10
  2057  000802  6E0B               	movwf	___awmod@divisor^0,c
  2058  000804  ECFA  F010         	call	___awmod	;wreg free
  2059  000808  C009  F011         	movff	?___awmod,??_set_time
  2060  00080C  C00A  F012         	movff	?___awmod+1,??_set_time+1
  2061  000810  C05D  F001         	movff	_h,___awdiv@dividend
  2062  000814  6A02               	clrf	(___awdiv@dividend+1)^0,c
  2063  000816  0E00               	movlw	0
  2064  000818  6E04               	movwf	(___awdiv@divisor+1)^0,c
  2065  00081A  0E0A               	movlw	10
  2066  00081C  6E03               	movwf	___awdiv@divisor^0,c
  2067  00081E  EC98  F010         	call	___awdiv	;wreg free
  2068  000822  3801               	swapf	?___awdiv^0,w,c
  2069  000824  0BF0               	andlw	240
  2070  000826  1011               	iorwf	??_set_time^0,w,c
  2071  000828  6E13               	movwf	set_time@num^0,c
  2072  00082A                     
  2073                           ;black_box.c: 241:                 write_ds1307(0x02,num);
  2074  00082A  C013  F002         	movff	set_time@num,write_ds1307@data
  2075  00082E  0E02               	movlw	2
  2076  000830  ECD8  F014         	call	_write_ds1307
  2077  000834  EF80  F003         	goto	l3476
  2078  000838                     l3508:
  2079                           
  2080                           ; BSR set to: 0
  2081                           ;black_box.c: 232:         while(read_key(1) == 11)
  2082  000838  0E01               	movlw	1
  2083  00083A  ECB6  F012         	call	_read_key
  2084  00083E  0A0B               	xorlw	11
  2085  000840  B4D8               	btfsc	status,2,c
  2086  000842  EF25  F004         	goto	u2601
  2087  000846  EF27  F004         	goto	u2600
  2088  00084A                     u2601:
  2089  00084A  EFAE  F003         	goto	l3492
  2090  00084E                     u2600:
  2091  00084E                     l3510:
  2092                           
  2093                           ;black_box.c: 246:     if(j == 0)
  2094  00084E  505A               	movf	set_time@j^0,w,c
  2095  000850  A4D8               	btfss	status,2,c
  2096  000852  EF2D  F004         	goto	u2611
  2097  000856  EF2F  F004         	goto	u2610
  2098  00085A                     u2611:
  2099  00085A  EF8F  F004         	goto	l3528
  2100  00085E                     u2610:
  2101  00085E                     
  2102                           ;black_box.c: 247:     {;black_box.c: 248:         if(key == 11)
  2103  00085E  0E0B               	movlw	11
  2104  000860  1814               	xorwf	set_time@key^0,w,c
  2105  000862  A4D8               	btfss	status,2,c
  2106  000864  EF36  F004         	goto	u2621
  2107  000868  EF38  F004         	goto	u2620
  2108  00086C                     u2621:
  2109  00086C  EF44  F004         	goto	l3518
  2110  000870                     u2620:
  2111  000870                     
  2112                           ;black_box.c: 249:         if(++sec == 60)
  2113  000870  2A5E               	incf	_sec^0,f,c
  2114  000872  0E3C               	movlw	60
  2115  000874  185E               	xorwf	_sec^0,w,c
  2116  000876  A4D8               	btfss	status,2,c
  2117  000878  EF40  F004         	goto	u2631
  2118  00087C  EF42  F004         	goto	u2630
  2119  000880                     u2631:
  2120  000880  EF44  F004         	goto	l3518
  2121  000884                     u2630:
  2122  000884                     
  2123                           ;black_box.c: 250:         sec = 0;
  2124  000884  0E00               	movlw	0
  2125  000886  6E5E               	movwf	_sec^0,c
  2126  000888                     l3518:
  2127                           
  2128                           ;black_box.c: 251:         if(++t < 150)
  2129  000888  0100               	movlb	0	; () banked
  2130  00088A  4BCB               	infsnz	set_time@t& (0+255),f,b
  2131  00088C  2BCC               	incf	(set_time@t+1)& (0+255),f,b
  2132  00088E  51CC               	movf	(set_time@t+1)& (0+255),w,b
  2133  000890  E107               	bnz	u2641
  2134  000892  0E96               	movlw	150
  2135  000894  5DCB               	subwf	set_time@t& (0+255),w,b
  2136  000896  B0D8               	btfsc	status,0,c
  2137  000898  EF50  F004         	goto	u2641
  2138  00089C  EF52  F004         	goto	u2640
  2139  0008A0                     u2641:
  2140  0008A0  EF5E  F004         	goto	l3522
  2141  0008A4                     u2640:
  2142  0008A4                     
  2143                           ; BSR set to: 0
  2144                           ;black_box.c: 252:         {;black_box.c: 253:             clcd_print_ch(' ',(0xC0 + (6)
      +                          ));
  2145  0008A4  0EC6               	movlw	198
  2146  0008A6  6E0F               	movwf	clcd_print_ch@addr^0,c
  2147  0008A8  0E20               	movlw	32
  2148  0008AA  ECF4  F014         	call	_clcd_print_ch
  2149                           
  2150                           ;black_box.c: 254:             clcd_print_ch(' ',(0xC0 + (7)));
  2151  0008AE  0EC7               	movlw	199
  2152  0008B0  6E0F               	movwf	clcd_print_ch@addr^0,c
  2153  0008B2  0E20               	movlw	32
  2154  0008B4  ECF4  F014         	call	_clcd_print_ch
  2155                           
  2156                           ;black_box.c: 255:         }
  2157  0008B8  EF56  F005         	goto	l3564
  2158  0008BC                     l3522:
  2159                           
  2160                           ; BSR set to: 0
  2161  0008BC  0E2C               	movlw	44
  2162  0008BE  19CB               	xorwf	set_time@t& (0+255),w,b
  2163  0008C0  E106               	bnz	u2651
  2164  0008C2  05CC               	decf	(set_time@t+1)& (0+255),w,b
  2165  0008C4  A4D8               	btfss	status,2,c
  2166  0008C6  EF67  F004         	goto	u2651
  2167  0008CA  EF69  F004         	goto	u2650
  2168  0008CE                     u2651:
  2169  0008CE  EF6F  F004         	goto	l3526
  2170  0008D2                     u2650:
  2171  0008D2                     l3524:
  2172                           
  2173                           ; BSR set to: 0
  2174                           ;black_box.c: 257:             t = 0;
  2175  0008D2  0E00               	movlw	0
  2176  0008D4  6FCC               	movwf	(set_time@t+1)& (0+255),b
  2177  0008D6  0E00               	movlw	0
  2178  0008D8  6FCB               	movwf	set_time@t& (0+255),b
  2179  0008DA  EF56  F005         	goto	l3564
  2180  0008DE                     l3526:
  2181                           
  2182                           ; BSR set to: 0
  2183                           ;black_box.c: 259:         {;black_box.c: 260:             clcd_print_ch(sec/10 + '0',(0
      +                          xC0 + (6)));
  2184  0008DE  0EC6               	movlw	198
  2185  0008E0  6E0F               	movwf	clcd_print_ch@addr^0,c
  2186  0008E2  C05E  F001         	movff	_sec,___awdiv@dividend
  2187  0008E6  6A02               	clrf	(___awdiv@dividend+1)^0,c
  2188  0008E8  0E00               	movlw	0
  2189  0008EA  6E04               	movwf	(___awdiv@divisor+1)^0,c
  2190  0008EC  0E0A               	movlw	10
  2191  0008EE  6E03               	movwf	___awdiv@divisor^0,c
  2192  0008F0  EC98  F010         	call	___awdiv	;wreg free
  2193  0008F4  5001               	movf	?___awdiv^0,w,c
  2194  0008F6  0F30               	addlw	48
  2195  0008F8  ECF4  F014         	call	_clcd_print_ch
  2196                           
  2197                           ;black_box.c: 261:             clcd_print_ch(sec%10 + '0',(0xC0 + (7)));
  2198  0008FC  0EC7               	movlw	199
  2199  0008FE  6E0F               	movwf	clcd_print_ch@addr^0,c
  2200  000900  C05E  F009         	movff	_sec,___awmod@dividend
  2201  000904  6A0A               	clrf	(___awmod@dividend+1)^0,c
  2202  000906  0E00               	movlw	0
  2203  000908  6E0C               	movwf	(___awmod@divisor+1)^0,c
  2204  00090A  0E0A               	movlw	10
  2205  00090C  6E0B               	movwf	___awmod@divisor^0,c
  2206  00090E  ECFA  F010         	call	___awmod	;wreg free
  2207  000912  5009               	movf	?___awmod^0,w,c
  2208  000914  0F30               	addlw	48
  2209  000916  ECF4  F014         	call	_clcd_print_ch
  2210  00091A  EF56  F005         	goto	l3564
  2211  00091E                     l3528:
  2212  00091E  045A               	decf	set_time@j^0,w,c
  2213  000920  A4D8               	btfss	status,2,c
  2214  000922  EF95  F004         	goto	u2661
  2215  000926  EF97  F004         	goto	u2660
  2216  00092A                     u2661:
  2217  00092A  EFF3  F004         	goto	l3546
  2218  00092E                     u2660:
  2219  00092E                     
  2220                           ;black_box.c: 266:     {;black_box.c: 267:         if(key == 11)
  2221  00092E  0E0B               	movlw	11
  2222  000930  1814               	xorwf	set_time@key^0,w,c
  2223  000932  A4D8               	btfss	status,2,c
  2224  000934  EF9E  F004         	goto	u2671
  2225  000938  EFA0  F004         	goto	u2670
  2226  00093C                     u2671:
  2227  00093C  EFAC  F004         	goto	l3536
  2228  000940                     u2670:
  2229  000940                     
  2230                           ;black_box.c: 268:         if(++min == 60)
  2231  000940  2A5C               	incf	_min^0,f,c
  2232  000942  0E3C               	movlw	60
  2233  000944  185C               	xorwf	_min^0,w,c
  2234  000946  A4D8               	btfss	status,2,c
  2235  000948  EFA8  F004         	goto	u2681
  2236  00094C  EFAA  F004         	goto	u2680
  2237  000950                     u2681:
  2238  000950  EFAC  F004         	goto	l3536
  2239  000954                     u2680:
  2240  000954                     
  2241                           ;black_box.c: 269:            min = 0;
  2242  000954  0E00               	movlw	0
  2243  000956  6E5C               	movwf	_min^0,c
  2244  000958                     l3536:
  2245                           
  2246                           ;black_box.c: 270:         if(++t < 150)
  2247  000958  0100               	movlb	0	; () banked
  2248  00095A  4BCB               	infsnz	set_time@t& (0+255),f,b
  2249  00095C  2BCC               	incf	(set_time@t+1)& (0+255),f,b
  2250  00095E  51CC               	movf	(set_time@t+1)& (0+255),w,b
  2251  000960  E107               	bnz	u2691
  2252  000962  0E96               	movlw	150
  2253  000964  5DCB               	subwf	set_time@t& (0+255),w,b
  2254  000966  B0D8               	btfsc	status,0,c
  2255  000968  EFB8  F004         	goto	u2691
  2256  00096C  EFBA  F004         	goto	u2690
  2257  000970                     u2691:
  2258  000970  EFC6  F004         	goto	l3540
  2259  000974                     u2690:
  2260  000974                     
  2261                           ; BSR set to: 0
  2262                           ;black_box.c: 271:         {;black_box.c: 272:             clcd_print_ch(' ',(0xC0 + (3)
      +                          ));
  2263  000974  0EC3               	movlw	195
  2264  000976  6E0F               	movwf	clcd_print_ch@addr^0,c
  2265  000978  0E20               	movlw	32
  2266  00097A  ECF4  F014         	call	_clcd_print_ch
  2267                           
  2268                           ;black_box.c: 273:             clcd_print_ch(' ',(0xC0 + (4)));
  2269  00097E  0EC4               	movlw	196
  2270  000980  6E0F               	movwf	clcd_print_ch@addr^0,c
  2271  000982  0E20               	movlw	32
  2272  000984  ECF4  F014         	call	_clcd_print_ch
  2273                           
  2274                           ;black_box.c: 274:         }
  2275  000988  EF56  F005         	goto	l3564
  2276  00098C                     l3540:
  2277                           
  2278                           ; BSR set to: 0
  2279  00098C  0E2C               	movlw	44
  2280  00098E  19CB               	xorwf	set_time@t& (0+255),w,b
  2281  000990  E106               	bnz	u2701
  2282  000992  05CC               	decf	(set_time@t+1)& (0+255),w,b
  2283  000994  A4D8               	btfss	status,2,c
  2284  000996  EFCF  F004         	goto	u2701
  2285  00099A  EFD1  F004         	goto	u2700
  2286  00099E                     u2701:
  2287  00099E  EFD3  F004         	goto	l3544
  2288  0009A2                     u2700:
  2289  0009A2  EF69  F004         	goto	l3524
  2290  0009A6                     l3544:
  2291                           
  2292                           ; BSR set to: 0
  2293                           ;black_box.c: 278:         {;black_box.c: 279:             clcd_print_ch(min/10 + '0',(0
      +                          xC0 + (3)));
  2294  0009A6  0EC3               	movlw	195
  2295  0009A8  6E0F               	movwf	clcd_print_ch@addr^0,c
  2296  0009AA  C05C  F001         	movff	_min,___awdiv@dividend
  2297  0009AE  6A02               	clrf	(___awdiv@dividend+1)^0,c
  2298  0009B0  0E00               	movlw	0
  2299  0009B2  6E04               	movwf	(___awdiv@divisor+1)^0,c
  2300  0009B4  0E0A               	movlw	10
  2301  0009B6  6E03               	movwf	___awdiv@divisor^0,c
  2302  0009B8  EC98  F010         	call	___awdiv	;wreg free
  2303  0009BC  5001               	movf	?___awdiv^0,w,c
  2304  0009BE  0F30               	addlw	48
  2305  0009C0  ECF4  F014         	call	_clcd_print_ch
  2306                           
  2307                           ;black_box.c: 280:             clcd_print_ch(min%10 + '0',(0xC0 + (4)));
  2308  0009C4  0EC4               	movlw	196
  2309  0009C6  6E0F               	movwf	clcd_print_ch@addr^0,c
  2310  0009C8  C05C  F009         	movff	_min,___awmod@dividend
  2311  0009CC  6A0A               	clrf	(___awmod@dividend+1)^0,c
  2312  0009CE  0E00               	movlw	0
  2313  0009D0  6E0C               	movwf	(___awmod@divisor+1)^0,c
  2314  0009D2  0E0A               	movlw	10
  2315  0009D4  6E0B               	movwf	___awmod@divisor^0,c
  2316  0009D6  ECFA  F010         	call	___awmod	;wreg free
  2317  0009DA  5009               	movf	?___awmod^0,w,c
  2318  0009DC  0F30               	addlw	48
  2319  0009DE  ECF4  F014         	call	_clcd_print_ch
  2320  0009E2  EF56  F005         	goto	l3564
  2321  0009E6                     l3546:
  2322  0009E6  0E02               	movlw	2
  2323  0009E8  185A               	xorwf	set_time@j^0,w,c
  2324  0009EA  A4D8               	btfss	status,2,c
  2325  0009EC  EFFA  F004         	goto	u2711
  2326  0009F0  EFFC  F004         	goto	u2710
  2327  0009F4                     u2711:
  2328  0009F4  EF56  F005         	goto	l3564
  2329  0009F8                     u2710:
  2330  0009F8                     
  2331                           ;black_box.c: 284:     {;black_box.c: 285:         if(key == 11)
  2332  0009F8  0E0B               	movlw	11
  2333  0009FA  1814               	xorwf	set_time@key^0,w,c
  2334  0009FC  A4D8               	btfss	status,2,c
  2335  0009FE  EF03  F005         	goto	u2721
  2336  000A02  EF05  F005         	goto	u2720
  2337  000A06                     u2721:
  2338  000A06  EF11  F005         	goto	l3554
  2339  000A0A                     u2720:
  2340  000A0A                     
  2341                           ;black_box.c: 286:         if(++h == 24)
  2342  000A0A  2A5D               	incf	_h^0,f,c
  2343  000A0C  0E18               	movlw	24
  2344  000A0E  185D               	xorwf	_h^0,w,c
  2345  000A10  A4D8               	btfss	status,2,c
  2346  000A12  EF0D  F005         	goto	u2731
  2347  000A16  EF0F  F005         	goto	u2730
  2348  000A1A                     u2731:
  2349  000A1A  EF11  F005         	goto	l3554
  2350  000A1E                     u2730:
  2351  000A1E                     
  2352                           ;black_box.c: 287:            h = 0;
  2353  000A1E  0E00               	movlw	0
  2354  000A20  6E5D               	movwf	_h^0,c
  2355  000A22                     l3554:
  2356                           
  2357                           ;black_box.c: 288:         if(++t < 150)
  2358  000A22  0100               	movlb	0	; () banked
  2359  000A24  4BCB               	infsnz	set_time@t& (0+255),f,b
  2360  000A26  2BCC               	incf	(set_time@t+1)& (0+255),f,b
  2361  000A28  51CC               	movf	(set_time@t+1)& (0+255),w,b
  2362  000A2A  E107               	bnz	u2741
  2363  000A2C  0E96               	movlw	150
  2364  000A2E  5DCB               	subwf	set_time@t& (0+255),w,b
  2365  000A30  B0D8               	btfsc	status,0,c
  2366  000A32  EF1D  F005         	goto	u2741
  2367  000A36  EF1F  F005         	goto	u2740
  2368  000A3A                     u2741:
  2369  000A3A  EF2B  F005         	goto	l3558
  2370  000A3E                     u2740:
  2371  000A3E                     
  2372                           ; BSR set to: 0
  2373                           ;black_box.c: 289:         {;black_box.c: 290:             clcd_print_ch(' ',(0xC0 + (0)
      +                          ));
  2374  000A3E  0EC0               	movlw	192
  2375  000A40  6E0F               	movwf	clcd_print_ch@addr^0,c
  2376  000A42  0E20               	movlw	32
  2377  000A44  ECF4  F014         	call	_clcd_print_ch
  2378                           
  2379                           ;black_box.c: 291:             clcd_print_ch(' ',(0xC0 + (1)));
  2380  000A48  0EC1               	movlw	193
  2381  000A4A  6E0F               	movwf	clcd_print_ch@addr^0,c
  2382  000A4C  0E20               	movlw	32
  2383  000A4E  ECF4  F014         	call	_clcd_print_ch
  2384                           
  2385                           ;black_box.c: 292:         }
  2386  000A52  EF56  F005         	goto	l3564
  2387  000A56                     l3558:
  2388                           
  2389                           ; BSR set to: 0
  2390  000A56  0E2C               	movlw	44
  2391  000A58  19CB               	xorwf	set_time@t& (0+255),w,b
  2392  000A5A  E106               	bnz	u2751
  2393  000A5C  05CC               	decf	(set_time@t+1)& (0+255),w,b
  2394  000A5E  A4D8               	btfss	status,2,c
  2395  000A60  EF34  F005         	goto	u2751
  2396  000A64  EF36  F005         	goto	u2750
  2397  000A68                     u2751:
  2398  000A68  EF38  F005         	goto	l3562
  2399  000A6C                     u2750:
  2400  000A6C  EF69  F004         	goto	l3524
  2401  000A70                     l3562:
  2402                           
  2403                           ; BSR set to: 0
  2404                           ;black_box.c: 296:         {;black_box.c: 297:             clcd_print_ch(h/10 + '0',(0xC
      +                          0 + (0)));
  2405  000A70  0EC0               	movlw	192
  2406  000A72  6E0F               	movwf	clcd_print_ch@addr^0,c
  2407  000A74  C05D  F001         	movff	_h,___awdiv@dividend
  2408  000A78  6A02               	clrf	(___awdiv@dividend+1)^0,c
  2409  000A7A  0E00               	movlw	0
  2410  000A7C  6E04               	movwf	(___awdiv@divisor+1)^0,c
  2411  000A7E  0E0A               	movlw	10
  2412  000A80  6E03               	movwf	___awdiv@divisor^0,c
  2413  000A82  EC98  F010         	call	___awdiv	;wreg free
  2414  000A86  5001               	movf	?___awdiv^0,w,c
  2415  000A88  0F30               	addlw	48
  2416  000A8A  ECF4  F014         	call	_clcd_print_ch
  2417                           
  2418                           ;black_box.c: 298:             clcd_print_ch(h%10 + '0',(0xC0 + (1)));
  2419  000A8E  0EC1               	movlw	193
  2420  000A90  6E0F               	movwf	clcd_print_ch@addr^0,c
  2421  000A92  C05D  F009         	movff	_h,___awmod@dividend
  2422  000A96  6A0A               	clrf	(___awmod@dividend+1)^0,c
  2423  000A98  0E00               	movlw	0
  2424  000A9A  6E0C               	movwf	(___awmod@divisor+1)^0,c
  2425  000A9C  0E0A               	movlw	10
  2426  000A9E  6E0B               	movwf	___awmod@divisor^0,c
  2427  000AA0  ECFA  F010         	call	___awmod	;wreg free
  2428  000AA4  5009               	movf	?___awmod^0,w,c
  2429  000AA6  0F30               	addlw	48
  2430  000AA8  ECF4  F014         	call	_clcd_print_ch
  2431  000AAC                     l3564:
  2432                           
  2433                           ;black_box.c: 302:     if(j != 2)
  2434  000AAC  0E02               	movlw	2
  2435  000AAE  185A               	xorwf	set_time@j^0,w,c
  2436  000AB0  B4D8               	btfsc	status,2,c
  2437  000AB2  EF5D  F005         	goto	u2761
  2438  000AB6  EF5F  F005         	goto	u2760
  2439  000ABA                     u2761:
  2440  000ABA  EF7D  F005         	goto	l3568
  2441  000ABE                     u2760:
  2442  000ABE                     
  2443                           ;black_box.c: 303:     {;black_box.c: 304:         clcd_print_ch(h/10 + '0',(0xC0 + (0))
      +                          );
  2444  000ABE  0EC0               	movlw	192
  2445  000AC0  6E0F               	movwf	clcd_print_ch@addr^0,c
  2446  000AC2  C05D  F001         	movff	_h,___awdiv@dividend
  2447  000AC6  6A02               	clrf	(___awdiv@dividend+1)^0,c
  2448  000AC8  0E00               	movlw	0
  2449  000ACA  6E04               	movwf	(___awdiv@divisor+1)^0,c
  2450  000ACC  0E0A               	movlw	10
  2451  000ACE  6E03               	movwf	___awdiv@divisor^0,c
  2452  000AD0  EC98  F010         	call	___awdiv	;wreg free
  2453  000AD4  5001               	movf	?___awdiv^0,w,c
  2454  000AD6  0F30               	addlw	48
  2455  000AD8  ECF4  F014         	call	_clcd_print_ch
  2456                           
  2457                           ;black_box.c: 305:         clcd_print_ch(h%10 + '0',(0xC0 + (1)));
  2458  000ADC  0EC1               	movlw	193
  2459  000ADE  6E0F               	movwf	clcd_print_ch@addr^0,c
  2460  000AE0  C05D  F009         	movff	_h,___awmod@dividend
  2461  000AE4  6A0A               	clrf	(___awmod@dividend+1)^0,c
  2462  000AE6  0E00               	movlw	0
  2463  000AE8  6E0C               	movwf	(___awmod@divisor+1)^0,c
  2464  000AEA  0E0A               	movlw	10
  2465  000AEC  6E0B               	movwf	___awmod@divisor^0,c
  2466  000AEE  ECFA  F010         	call	___awmod	;wreg free
  2467  000AF2  5009               	movf	?___awmod^0,w,c
  2468  000AF4  0F30               	addlw	48
  2469  000AF6  ECF4  F014         	call	_clcd_print_ch
  2470  000AFA                     l3568:
  2471                           
  2472                           ;black_box.c: 307:     clcd_print_ch(':',(0xC0 + (2)));
  2473  000AFA  0EC2               	movlw	194
  2474  000AFC  6E0F               	movwf	clcd_print_ch@addr^0,c
  2475  000AFE  0E3A               	movlw	58
  2476  000B00  ECF4  F014         	call	_clcd_print_ch
  2477  000B04                     
  2478                           ;black_box.c: 308:     if(j != 1)
  2479  000B04  045A               	decf	set_time@j^0,w,c
  2480  000B06  B4D8               	btfsc	status,2,c
  2481  000B08  EF88  F005         	goto	u2771
  2482  000B0C  EF8A  F005         	goto	u2770
  2483  000B10                     u2771:
  2484  000B10  EFA8  F005         	goto	l3574
  2485  000B14                     u2770:
  2486  000B14                     
  2487                           ;black_box.c: 309:     {;black_box.c: 310:         clcd_print_ch(min/10 + '0',(0xC0 + (3
      +                          )));
  2488  000B14  0EC3               	movlw	195
  2489  000B16  6E0F               	movwf	clcd_print_ch@addr^0,c
  2490  000B18  C05C  F001         	movff	_min,___awdiv@dividend
  2491  000B1C  6A02               	clrf	(___awdiv@dividend+1)^0,c
  2492  000B1E  0E00               	movlw	0
  2493  000B20  6E04               	movwf	(___awdiv@divisor+1)^0,c
  2494  000B22  0E0A               	movlw	10
  2495  000B24  6E03               	movwf	___awdiv@divisor^0,c
  2496  000B26  EC98  F010         	call	___awdiv	;wreg free
  2497  000B2A  5001               	movf	?___awdiv^0,w,c
  2498  000B2C  0F30               	addlw	48
  2499  000B2E  ECF4  F014         	call	_clcd_print_ch
  2500                           
  2501                           ;black_box.c: 311:         clcd_print_ch(min%10 + '0',(0xC0 + (4)));
  2502  000B32  0EC4               	movlw	196
  2503  000B34  6E0F               	movwf	clcd_print_ch@addr^0,c
  2504  000B36  C05C  F009         	movff	_min,___awmod@dividend
  2505  000B3A  6A0A               	clrf	(___awmod@dividend+1)^0,c
  2506  000B3C  0E00               	movlw	0
  2507  000B3E  6E0C               	movwf	(___awmod@divisor+1)^0,c
  2508  000B40  0E0A               	movlw	10
  2509  000B42  6E0B               	movwf	___awmod@divisor^0,c
  2510  000B44  ECFA  F010         	call	___awmod	;wreg free
  2511  000B48  5009               	movf	?___awmod^0,w,c
  2512  000B4A  0F30               	addlw	48
  2513  000B4C  ECF4  F014         	call	_clcd_print_ch
  2514  000B50                     l3574:
  2515                           
  2516                           ;black_box.c: 313:     clcd_print_ch(':',(0xC0 + (5)));
  2517  000B50  0EC5               	movlw	197
  2518  000B52  6E0F               	movwf	clcd_print_ch@addr^0,c
  2519  000B54  0E3A               	movlw	58
  2520  000B56  ECF4  F014         	call	_clcd_print_ch
  2521  000B5A                     
  2522                           ;black_box.c: 314:     if(j != 0)
  2523  000B5A  505A               	movf	set_time@j^0,w,c
  2524  000B5C  B4D8               	btfsc	status,2,c
  2525  000B5E  EFB3  F005         	goto	u2781
  2526  000B62  EFB5  F005         	goto	u2780
  2527  000B66                     u2781:
  2528  000B66  EFD3  F005         	goto	l3580
  2529  000B6A                     u2780:
  2530  000B6A                     
  2531                           ;black_box.c: 315:     {;black_box.c: 316:         clcd_print_ch(sec/10 + '0',(0xC0 + (6
      +                          )));
  2532  000B6A  0EC6               	movlw	198
  2533  000B6C  6E0F               	movwf	clcd_print_ch@addr^0,c
  2534  000B6E  C05E  F001         	movff	_sec,___awdiv@dividend
  2535  000B72  6A02               	clrf	(___awdiv@dividend+1)^0,c
  2536  000B74  0E00               	movlw	0
  2537  000B76  6E04               	movwf	(___awdiv@divisor+1)^0,c
  2538  000B78  0E0A               	movlw	10
  2539  000B7A  6E03               	movwf	___awdiv@divisor^0,c
  2540  000B7C  EC98  F010         	call	___awdiv	;wreg free
  2541  000B80  5001               	movf	?___awdiv^0,w,c
  2542  000B82  0F30               	addlw	48
  2543  000B84  ECF4  F014         	call	_clcd_print_ch
  2544                           
  2545                           ;black_box.c: 317:         clcd_print_ch(sec%10 + '0',(0xC0 + (7)));
  2546  000B88  0EC7               	movlw	199
  2547  000B8A  6E0F               	movwf	clcd_print_ch@addr^0,c
  2548  000B8C  C05E  F009         	movff	_sec,___awmod@dividend
  2549  000B90  6A0A               	clrf	(___awmod@dividend+1)^0,c
  2550  000B92  0E00               	movlw	0
  2551  000B94  6E0C               	movwf	(___awmod@divisor+1)^0,c
  2552  000B96  0E0A               	movlw	10
  2553  000B98  6E0B               	movwf	___awmod@divisor^0,c
  2554  000B9A  ECFA  F010         	call	___awmod	;wreg free
  2555  000B9E  5009               	movf	?___awmod^0,w,c
  2556  000BA0  0F30               	addlw	48
  2557  000BA2  ECF4  F014         	call	_clcd_print_ch
  2558  000BA6                     l3580:
  2559                           
  2560                           ;black_box.c: 319:     return 7;
  2561  000BA6  0E07               	movlw	7
  2562  000BA8                     l308:
  2563  000BA8  0012               	return		;funcret
  2564  000BAA                     __end_of_set_time:
  2565                           	callstack 0
  2566                           
  2567 ;; *************** function _read_adc *****************
  2568 ;; Defined at:
  2569 ;;		line 12 in file "adc.c"
  2570 ;; Parameters:    Size  Location     Type
  2571 ;;  channel         1    wreg     unsigned char 
  2572 ;; Auto vars:     Size  Location     Type
  2573 ;;  channel         1    5[COMRAM] unsigned char 
  2574 ;; Return value:  Size  Location     Type
  2575 ;;                  2    0[COMRAM] unsigned int 
  2576 ;; Registers used:
  2577 ;;		wreg, status,2, status,0
  2578 ;; Tracked objects:
  2579 ;;		On entry : 0/0
  2580 ;;		On exit  : 0/0
  2581 ;;		Unchanged: 0/0
  2582 ;; Data sizes:     COMRAM   BANK0   BANK1   BANK2   BANK3   BANK4   BANK5
  2583 ;;      Params:         2       0       0       0       0       0       0
  2584 ;;      Locals:         1       0       0       0       0       0       0
  2585 ;;      Temps:          3       0       0       0       0       0       0
  2586 ;;      Totals:         6       0       0       0       0       0       0
  2587 ;;Total ram usage:        6 bytes
  2588 ;; Hardware stack levels used: 1
  2589 ;; This function calls:
  2590 ;;		Nothing
  2591 ;; This function is called by:
  2592 ;;		_main
  2593 ;; This function uses a non-reentrant model
  2594 ;;
  2595                           
  2596                           	psect	text3
  2597  0027E6                     __ptext3:
  2598                           	callstack 0
  2599  0027E6                     _read_adc:
  2600                           	callstack 30
  2601                           
  2602                           ;incstack = 0
  2603                           ;read_adc@channel stored from wreg
  2604  0027E6  6E06               	movwf	read_adc@channel^0,c
  2605  0027E8                     
  2606                           ;adc.c: 12: unsigned int read_adc(unsigned char channel);adc.c: 13: {;adc.c: 14:     ADC
      +                          ON0 = (ADCON0 & 0xC3) | (channel << 2);
  2607  0027E8  C006  F003         	movff	read_adc@channel,??_read_adc
  2608  0027EC  90D8               	bcf	status,0,c
  2609  0027EE  3603               	rlcf	??_read_adc^0,f,c
  2610  0027F0  90D8               	bcf	status,0,c
  2611  0027F2  3603               	rlcf	??_read_adc^0,f,c
  2612  0027F4  50C2               	movf	194,w,c	;volatile
  2613  0027F6  0BC3               	andlw	195
  2614  0027F8  1003               	iorwf	??_read_adc^0,w,c
  2615  0027FA  6EC2               	movwf	194,c	;volatile
  2616  0027FC                     
  2617                           ;adc.c: 16:     GO = 1;
  2618  0027FC  82C2               	bsf	4034,1,c	;volatile
  2619  0027FE                     l180:
  2620  0027FE  B2C2               	btfsc	4034,1,c	;volatile
  2621  002800  EF04  F014         	goto	u2181
  2622  002804  EF06  F014         	goto	u2180
  2623  002808                     u2181:
  2624  002808  EFFF  F013         	goto	l180
  2625  00280C                     u2180:
  2626  00280C                     
  2627                           ;adc.c: 19:     return ((ADRESH & 0x03)<<8 | ADRESL);
  2628  00280C  CFC4 F003          	movff	4036,??_read_adc	;volatile
  2629  002810  0E03               	movlw	3
  2630  002812  1603               	andwf	??_read_adc^0,f,c
  2631  002814  5003               	movf	??_read_adc^0,w,c
  2632  002816  6E05               	movwf	(??_read_adc+2)^0,c
  2633  002818  6A04               	clrf	(??_read_adc+1)^0,c
  2634  00281A  50C3               	movf	195,w,c	;volatile
  2635  00281C  1004               	iorwf	(??_read_adc+1)^0,w,c
  2636  00281E  6E01               	movwf	?_read_adc^0,c
  2637  002820  5005               	movf	(??_read_adc+2)^0,w,c
  2638  002822  6E02               	movwf	(?_read_adc+1)^0,c
  2639  002824  0012               	return		;funcret
  2640  002826                     __end_of_read_adc:
  2641                           	callstack 0
  2642                           
  2643 ;; *************** function _login_screen *****************
  2644 ;; Defined at:
  2645 ;;		line 122 in file "black_box.c"
  2646 ;; Parameters:    Size  Location     Type
  2647 ;;  key             1    wreg     unsigned char 
  2648 ;; Auto vars:     Size  Location     Type
  2649 ;;  key             1   85[BANK0 ] unsigned char 
  2650 ;;  arr            85    0[BANK0 ] unsigned char [17][5]
  2651 ;; Return value:  Size  Location     Type
  2652 ;;                  1    wreg      unsigned char 
  2653 ;; Registers used:
  2654 ;;		wreg, fsr0l, fsr0h, fsr1l, fsr1h, fsr2l, fsr2h, status,2, status,0, tblptrl, tblptrh, tblptru, prodl, prodh, cstack
  2655 ;; Tracked objects:
  2656 ;;		On entry : 0/0
  2657 ;;		On exit  : 0/0
  2658 ;;		Unchanged: 0/0
  2659 ;; Data sizes:     COMRAM   BANK0   BANK1   BANK2   BANK3   BANK4   BANK5
  2660 ;;      Params:         0       0       0       0       0       0       0
  2661 ;;      Locals:         0      86       0       0       0       0       0
  2662 ;;      Temps:          4       0       0       0       0       0       0
  2663 ;;      Totals:         4      86       0       0       0       0       0
  2664 ;;Total ram usage:       90 bytes
  2665 ;; Hardware stack levels used: 1
  2666 ;; Hardware stack levels required when called: 2
  2667 ;; This function calls:
  2668 ;;		_clcd_print
  2669 ;;		_clcd_print_ch
  2670 ;;		_clcd_write
  2671 ;;		_read_key
  2672 ;; This function is called by:
  2673 ;;		_main
  2674 ;; This function uses a non-reentrant model
  2675 ;;
  2676                           
  2677                           	psect	text4
  2678  0018B2                     __ptext4:
  2679                           	callstack 0
  2680  0018B2                     _login_screen:
  2681                           	callstack 28
  2682                           
  2683                           ;incstack = 0
  2684                           ;login_screen@key stored from wreg
  2685  0018B2  0100               	movlb	0	; () banked
  2686  0018B4  6FB5               	movwf	login_screen@key& (0+255),b
  2687  0018B6                     
  2688                           ;black_box.c: 122: unsigned char login_screen(unsigned char key);black_box.c: 123: {;bla
      +                          ck_box.c: 124:     char arr[][17] = {"View Log    ","Download Log ","Clear log    ","set
      +                           time    ","change passd "};
  2689  0018B6  EE21  F000         	lfsr	2,login_screen@F10729
  2690  0018BA  EE10  F060         	lfsr	1,login_screen@arr
  2691  0018BE  0E54               	movlw	84
  2692  0018C0                     u2311:
  2693  0018C0  CFDB FFE3          	movff	plusw2,plusw1
  2694  0018C4  06E8               	decf	wreg,f,c
  2695  0018C6  E2FC               	bc	u2311
  2696  0018C8                     
  2697                           ;black_box.c: 125:     static char i,flag = 0;;black_box.c: 126:     if(flag)
  2698  0018C8  0100               	movlb	0	; () banked
  2699  0018CA  51D2               	movf	login_screen@flag& (0+255),w,b
  2700  0018CC  B4D8               	btfsc	status,2,c
  2701  0018CE  EF6B  F00C         	goto	u2321
  2702  0018D2  EF6D  F00C         	goto	u2320
  2703  0018D6                     u2321:
  2704  0018D6  EF71  F00C         	goto	l268
  2705  0018DA                     u2320:
  2706  0018DA                     
  2707                           ; BSR set to: 0
  2708                           ;black_box.c: 127:     {;black_box.c: 128:         i = 0;
  2709  0018DA  0E00               	movlw	0
  2710  0018DC  6FD3               	movwf	login_screen@i& (0+255),b
  2711                           
  2712                           ;black_box.c: 129:         flag = 0;
  2713  0018DE  0E00               	movlw	0
  2714  0018E0  6FD2               	movwf	login_screen@flag& (0+255),b
  2715  0018E2                     l268:
  2716                           
  2717                           ; BSR set to: 0
  2718                           ;black_box.c: 131:     static unsigned int long_press;;black_box.c: 132:     long_press 
      +                          = 0;
  2719  0018E2  0E00               	movlw	0
  2720  0018E4  6FD0               	movwf	(login_screen@long_press+1)& (0+255),b
  2721  0018E6  0E00               	movlw	0
  2722  0018E8  6FCF               	movwf	login_screen@long_press& (0+255),b
  2723  0018EA                     
  2724                           ; BSR set to: 0
  2725                           ;black_box.c: 133:     if(key == 12)
  2726  0018EA  0E0C               	movlw	12
  2727  0018EC  19B5               	xorwf	login_screen@key& (0+255),w,b
  2728  0018EE  A4D8               	btfss	status,2,c
  2729  0018F0  EF7C  F00C         	goto	u2331
  2730  0018F4  EF7E  F00C         	goto	u2330
  2731  0018F8                     u2331:
  2732  0018F8  EFB8  F00C         	goto	l3328
  2733  0018FC                     u2330:
  2734  0018FC  EFA1  F00C         	goto	l3322
  2735  001900                     l3310:
  2736                           
  2737                           ;black_box.c: 136:         {;black_box.c: 137:             if(++long_press == 50000)
  2738  001900  0100               	movlb	0	; () banked
  2739  001902  4BCF               	infsnz	login_screen@long_press& (0+255),f,b
  2740  001904  2BD0               	incf	(login_screen@long_press+1)& (0+255),f,b
  2741  001906  0E50               	movlw	80
  2742  001908  19CF               	xorwf	login_screen@long_press& (0+255),w,b
  2743  00190A  E107               	bnz	u2341
  2744  00190C  0EC3               	movlw	195
  2745  00190E  19D0               	xorwf	(login_screen@long_press+1)& (0+255),w,b
  2746  001910  A4D8               	btfss	status,2,c
  2747  001912  EF8D  F00C         	goto	u2341
  2748  001916  EF8F  F00C         	goto	u2340
  2749  00191A                     u2341:
  2750  00191A  EFA1  F00C         	goto	l3322
  2751  00191E                     u2340:
  2752  00191E                     
  2753                           ; BSR set to: 0
  2754                           ;black_box.c: 138:             {;black_box.c: 139:                 clcd_write(0x01, 0);
  2755  00191E  0E00               	movlw	0
  2756  001920  6E01               	movwf	clcd_write@control_bit^0,c
  2757  001922  0E01               	movlw	1
  2758  001924  EC51  F014         	call	_clcd_write
  2759  001928                     
  2760                           ;black_box.c: 140:                 _delay((unsigned long)((500)*(20000000/4000000.0)));
  2761  001928  0E04               	movlw	4
  2762  00192A  6E11               	movwf	??_login_screen^0,c
  2763  00192C  0E3E               	movlw	62
  2764  00192E                     u3517:
  2765  00192E  2EE8               	decfsz	wreg,f,c
  2766  001930  D7FE               	bra	u3517
  2767  001932  2E11               	decfsz	??_login_screen^0,f,c
  2768  001934  D7FC               	bra	u3517
  2769  001936                     
  2770                           ;black_box.c: 141:                 i = 0;
  2771  001936  0E00               	movlw	0
  2772  001938  0100               	movlb	0	; () banked
  2773  00193A  6FD3               	movwf	login_screen@i& (0+255),b
  2774  00193C                     
  2775                           ; BSR set to: 0
  2776                           ;black_box.c: 142:                 return 1;
  2777  00193C  0E01               	movlw	1
  2778  00193E  EF5D  F00D         	goto	l275
  2779  001942                     l3322:
  2780                           
  2781                           ; BSR set to: 0
  2782                           ;black_box.c: 135:         while(read_key(1) == 12)
  2783  001942  0E01               	movlw	1
  2784  001944  ECB6  F012         	call	_read_key
  2785  001948  0A0C               	xorlw	12
  2786  00194A  B4D8               	btfsc	status,2,c
  2787  00194C  EFAA  F00C         	goto	u2351
  2788  001950  EFAC  F00C         	goto	u2350
  2789  001954                     u2351:
  2790  001954  EF80  F00C         	goto	l3310
  2791  001958                     u2350:
  2792  001958                     
  2793                           ;black_box.c: 145:         if(i < 4)
  2794  001958  0E04               	movlw	4
  2795  00195A  0100               	movlb	0	; () banked
  2796  00195C  61D3               	cpfslt	login_screen@i& (0+255),b
  2797  00195E  EFB3  F00C         	goto	u2361
  2798  001962  EFB5  F00C         	goto	u2360
  2799  001966                     u2361:
  2800  001966  EFFA  F00C         	goto	l3350
  2801  00196A                     u2360:
  2802  00196A                     
  2803                           ; BSR set to: 0
  2804                           ;black_box.c: 146:         i++;
  2805  00196A  2BD3               	incf	login_screen@i& (0+255),f,b
  2806  00196C  EFFA  F00C         	goto	l3350
  2807  001970                     l3328:
  2808                           
  2809                           ; BSR set to: 0
  2810  001970  0E0B               	movlw	11
  2811  001972  19B5               	xorwf	login_screen@key& (0+255),w,b
  2812  001974  A4D8               	btfss	status,2,c
  2813  001976  EFBF  F00C         	goto	u2371
  2814  00197A  EFC1  F00C         	goto	u2370
  2815  00197E                     u2371:
  2816  00197E  EFFA  F00C         	goto	l3350
  2817  001982                     u2370:
  2818  001982  EFE5  F00C         	goto	l3344
  2819  001986                     l3332:
  2820                           
  2821                           ;black_box.c: 151:         {;black_box.c: 152:             if(++long_press == 50000)
  2822  001986  0100               	movlb	0	; () banked
  2823  001988  4BCF               	infsnz	login_screen@long_press& (0+255),f,b
  2824  00198A  2BD0               	incf	(login_screen@long_press+1)& (0+255),f,b
  2825  00198C  0E50               	movlw	80
  2826  00198E  19CF               	xorwf	login_screen@long_press& (0+255),w,b
  2827  001990  E107               	bnz	u2381
  2828  001992  0EC3               	movlw	195
  2829  001994  19D0               	xorwf	(login_screen@long_press+1)& (0+255),w,b
  2830  001996  A4D8               	btfss	status,2,c
  2831  001998  EFD0  F00C         	goto	u2381
  2832  00199C  EFD2  F00C         	goto	u2380
  2833  0019A0                     u2381:
  2834  0019A0  EFE5  F00C         	goto	l3344
  2835  0019A4                     u2380:
  2836  0019A4                     
  2837                           ; BSR set to: 0
  2838                           ;black_box.c: 153:             {;black_box.c: 154:                 clcd_write(0x01, 0);
  2839  0019A4  0E00               	movlw	0
  2840  0019A6  6E01               	movwf	clcd_write@control_bit^0,c
  2841  0019A8  0E01               	movlw	1
  2842  0019AA  EC51  F014         	call	_clcd_write
  2843  0019AE                     
  2844                           ;black_box.c: 155:                 _delay((unsigned long)((500)*(20000000/4000000.0)));
  2845  0019AE  0E04               	movlw	4
  2846  0019B0  6E11               	movwf	??_login_screen^0,c
  2847  0019B2  0E3E               	movlw	62
  2848  0019B4                     u3527:
  2849  0019B4  2EE8               	decfsz	wreg,f,c
  2850  0019B6  D7FE               	bra	u3527
  2851  0019B8  2E11               	decfsz	??_login_screen^0,f,c
  2852  0019BA  D7FC               	bra	u3527
  2853  0019BC                     
  2854                           ;black_box.c: 156:                 flag = 1;
  2855  0019BC  0E01               	movlw	1
  2856  0019BE  0100               	movlb	0	; () banked
  2857  0019C0  6FD2               	movwf	login_screen@flag& (0+255),b
  2858  0019C2                     
  2859                           ; BSR set to: 0
  2860                           ;black_box.c: 157:                 return (i+4);
  2861  0019C2  51D3               	movf	login_screen@i& (0+255),w,b
  2862  0019C4  0F04               	addlw	4
  2863  0019C6  EF5D  F00D         	goto	l275
  2864  0019CA                     l3344:
  2865                           
  2866                           ; BSR set to: 0
  2867                           ;black_box.c: 150:         while(read_key(1) == 11)
  2868  0019CA  0E01               	movlw	1
  2869  0019CC  ECB6  F012         	call	_read_key
  2870  0019D0  0A0B               	xorlw	11
  2871  0019D2  B4D8               	btfsc	status,2,c
  2872  0019D4  EFEE  F00C         	goto	u2391
  2873  0019D8  EFF0  F00C         	goto	u2390
  2874  0019DC                     u2391:
  2875  0019DC  EFC3  F00C         	goto	l3332
  2876  0019E0                     u2390:
  2877  0019E0                     
  2878                           ;black_box.c: 160:         if(i > 0)
  2879  0019E0  0100               	movlb	0	; () banked
  2880  0019E2  51D3               	movf	login_screen@i& (0+255),w,b
  2881  0019E4  B4D8               	btfsc	status,2,c
  2882  0019E6  EFF7  F00C         	goto	u2401
  2883  0019EA  EFF9  F00C         	goto	u2400
  2884  0019EE                     u2401:
  2885  0019EE  EFFA  F00C         	goto	l3350
  2886  0019F2                     u2400:
  2887  0019F2                     
  2888                           ; BSR set to: 0
  2889                           ;black_box.c: 161:         i--;
  2890  0019F2  07D3               	decf	login_screen@i& (0+255),f,b
  2891  0019F4                     l3350:
  2892                           
  2893                           ; BSR set to: 0
  2894                           ;black_box.c: 163:     if(i == 0)
  2895  0019F4  51D3               	movf	login_screen@i& (0+255),w,b
  2896  0019F6  A4D8               	btfss	status,2,c
  2897  0019F8  EF00  F00D         	goto	u2411
  2898  0019FC  EF02  F00D         	goto	u2410
  2899  001A00                     u2411:
  2900  001A00  EF2C  F00D         	goto	l3358
  2901  001A04                     u2410:
  2902  001A04                     
  2903                           ; BSR set to: 0
  2904                           ;black_box.c: 164:     {;black_box.c: 165:         clcd_print_ch(' ',(0xC0 + (0)));
  2905  001A04  0EC0               	movlw	192
  2906  001A06  6E0F               	movwf	clcd_print_ch@addr^0,c
  2907  001A08  0E20               	movlw	32
  2908  001A0A  ECF4  F014         	call	_clcd_print_ch
  2909  001A0E                     
  2910                           ;black_box.c: 166:         clcd_print(arr[i],(0x80 + (3)));
  2911  001A0E  0100               	movlb	0	; () banked
  2912  001A10  51D3               	movf	login_screen@i& (0+255),w,b
  2913  001A12  0D11               	mullw	17
  2914  001A14  0E60               	movlw	low login_screen@arr
  2915  001A16  24F3               	addwf	243,w,c
  2916  001A18  6E03               	movwf	clcd_print@data^0,c
  2917  001A1A  0E00               	movlw	high login_screen@arr
  2918  001A1C  20F4               	addwfc	prodh,w,c
  2919  001A1E  6E04               	movwf	(clcd_print@data+1)^0,c
  2920  001A20  0E83               	movlw	131
  2921  001A22  6E05               	movwf	clcd_print@addr^0,c
  2922  001A24  EC64  F013         	call	_clcd_print	;wreg free
  2923  001A28                     
  2924                           ;black_box.c: 167:         clcd_print(arr[i+1],(0xC0 + (3)));
  2925  001A28  0100               	movlb	0	; () banked
  2926  001A2A  51D3               	movf	login_screen@i& (0+255),w,b
  2927  001A2C  0D11               	mullw	17
  2928  001A2E  0E11               	movlw	17
  2929  001A30  26F3               	addwf	243,f,c
  2930  001A32  0E00               	movlw	0
  2931  001A34  22F4               	addwfc	244,f,c
  2932  001A36  0E60               	movlw	low login_screen@arr
  2933  001A38  24F3               	addwf	243,w,c
  2934  001A3A  6E03               	movwf	clcd_print@data^0,c
  2935  001A3C  0E00               	movlw	high login_screen@arr
  2936  001A3E  20F4               	addwfc	prodh,w,c
  2937  001A40  6E04               	movwf	(clcd_print@data+1)^0,c
  2938  001A42  0EC3               	movlw	195
  2939  001A44  6E05               	movwf	clcd_print@addr^0,c
  2940  001A46  EC64  F013         	call	_clcd_print	;wreg free
  2941                           
  2942                           ;black_box.c: 168:         clcd_print_ch('*',(0x80 + (0)));
  2943  001A4A  0E80               	movlw	128
  2944  001A4C  6E0F               	movwf	clcd_print_ch@addr^0,c
  2945  001A4E  0E2A               	movlw	42
  2946  001A50  ECF4  F014         	call	_clcd_print_ch
  2947                           
  2948                           ;black_box.c: 169:     }
  2949  001A54  EF5C  F00D         	goto	l3364
  2950  001A58                     l3358:
  2951                           
  2952                           ; BSR set to: 0
  2953                           ;black_box.c: 171:     {;black_box.c: 172:         clcd_print_ch(' ',(0x80 + (0)));
  2954  001A58  0E80               	movlw	128
  2955  001A5A  6E0F               	movwf	clcd_print_ch@addr^0,c
  2956  001A5C  0E20               	movlw	32
  2957  001A5E  ECF4  F014         	call	_clcd_print_ch
  2958  001A62                     
  2959                           ;black_box.c: 173:         clcd_print(arr[i-1],(0x80 + (3)));
  2960  001A62  0EEF               	movlw	239
  2961  001A64  6E11               	movwf	??_login_screen^0,c
  2962  001A66  0EFF               	movlw	255
  2963  001A68  6E12               	movwf	(??_login_screen+1)^0,c
  2964  001A6A  0100               	movlb	0	; () banked
  2965  001A6C  51D3               	movf	login_screen@i& (0+255),w,b
  2966  001A6E  0D11               	mullw	17
  2967  001A70  CFF3 F013          	movff	prodl,??_login_screen+2
  2968  001A74  CFF4 F014          	movff	prodh,??_login_screen+3
  2969  001A78  5011               	movf	??_login_screen^0,w,c
  2970  001A7A  2613               	addwf	(??_login_screen+2)^0,f,c
  2971  001A7C  5012               	movf	(??_login_screen+1)^0,w,c
  2972  001A7E  2214               	addwfc	(??_login_screen+3)^0,f,c
  2973  001A80  0E60               	movlw	low login_screen@arr
  2974  001A82  2413               	addwf	(??_login_screen+2)^0,w,c
  2975  001A84  6E03               	movwf	clcd_print@data^0,c
  2976  001A86  0E00               	movlw	high login_screen@arr
  2977  001A88  2014               	addwfc	(??_login_screen+3)^0,w,c
  2978  001A8A  6E04               	movwf	(clcd_print@data+1)^0,c
  2979  001A8C  0E83               	movlw	131
  2980  001A8E  6E05               	movwf	clcd_print@addr^0,c
  2981  001A90  EC64  F013         	call	_clcd_print	;wreg free
  2982  001A94                     
  2983                           ;black_box.c: 174:         clcd_print(arr[i],(0xC0 + (3)));
  2984  001A94  0100               	movlb	0	; () banked
  2985  001A96  51D3               	movf	login_screen@i& (0+255),w,b
  2986  001A98  0D11               	mullw	17
  2987  001A9A  0E60               	movlw	low login_screen@arr
  2988  001A9C  24F3               	addwf	243,w,c
  2989  001A9E  6E03               	movwf	clcd_print@data^0,c
  2990  001AA0  0E00               	movlw	high login_screen@arr
  2991  001AA2  20F4               	addwfc	prodh,w,c
  2992  001AA4  6E04               	movwf	(clcd_print@data+1)^0,c
  2993  001AA6  0EC3               	movlw	195
  2994  001AA8  6E05               	movwf	clcd_print@addr^0,c
  2995  001AAA  EC64  F013         	call	_clcd_print	;wreg free
  2996                           
  2997                           ;black_box.c: 175:         clcd_print_ch('*',(0xC0 + (0)));
  2998  001AAE  0EC0               	movlw	192
  2999  001AB0  6E0F               	movwf	clcd_print_ch@addr^0,c
  3000  001AB2  0E2A               	movlw	42
  3001  001AB4  ECF4  F014         	call	_clcd_print_ch
  3002  001AB8                     l3364:
  3003                           
  3004                           ;black_box.c: 177:     return 3;
  3005  001AB8  0E03               	movlw	3
  3006  001ABA                     l275:
  3007  001ABA  0012               	return		;funcret
  3008  001ABC                     __end_of_login_screen:
  3009                           	callstack 0
  3010                           
  3011 ;; *************** function _read_key *****************
  3012 ;; Defined at:
  3013 ;;		line 39 in file "matrix_keypad.c"
  3014 ;; Parameters:    Size  Location     Type
  3015 ;;  state           1    wreg     unsigned char 
  3016 ;; Auto vars:     Size  Location     Type
  3017 ;;  state           1    0[COMRAM] unsigned char 
  3018 ;;  key             1    1[COMRAM] unsigned char 
  3019 ;; Return value:  Size  Location     Type
  3020 ;;                  1    wreg      unsigned char 
  3021 ;; Registers used:
  3022 ;;		wreg, status,2, status,0, cstack
  3023 ;; Tracked objects:
  3024 ;;		On entry : 0/0
  3025 ;;		On exit  : 0/0
  3026 ;;		Unchanged: 0/0
  3027 ;; Data sizes:     COMRAM   BANK0   BANK1   BANK2   BANK3   BANK4   BANK5
  3028 ;;      Params:         0       0       0       0       0       0       0
  3029 ;;      Locals:         2       0       0       0       0       0       0
  3030 ;;      Temps:          0       0       0       0       0       0       0
  3031 ;;      Totals:         2       0       0       0       0       0       0
  3032 ;;Total ram usage:        2 bytes
  3033 ;; Hardware stack levels used: 1
  3034 ;; Hardware stack levels required when called: 1
  3035 ;; This function calls:
  3036 ;;		_scan_key
  3037 ;; This function is called by:
  3038 ;;		_main
  3039 ;;		_login_screen
  3040 ;;		_set_time
  3041 ;;		_view_log
  3042 ;; This function uses a non-reentrant model
  3043 ;;
  3044                           
  3045                           	psect	text5
  3046  00256C                     __ptext5:
  3047                           	callstack 0
  3048  00256C                     _read_key:
  3049                           	callstack 28
  3050                           
  3051                           ;incstack = 0
  3052                           ;read_key@state stored from wreg
  3053  00256C  6E01               	movwf	read_key@state^0,c
  3054  00256E                     
  3055                           ;matrix_keypad.c: 39: unsigned char read_key(unsigned char state);matrix_keypad.c: 40: {
      +                          ;matrix_keypad.c: 41:     static unsigned char once = 1;;matrix_keypad.c: 42:     unsign
      +                          ed char key = scan_key();
  3056  00256E  EC3A  F012         	call	_scan_key	;wreg free
  3057  002572  6E02               	movwf	read_key@key^0,c
  3058  002574                     
  3059                           ;matrix_keypad.c: 43:     if(state == 2)
  3060  002574  0E02               	movlw	2
  3061  002576  1801               	xorwf	read_key@state^0,w,c
  3062  002578  A4D8               	btfss	status,2,c
  3063  00257A  EFC1  F012         	goto	u1891
  3064  00257E  EFC3  F012         	goto	u1890
  3065  002582                     u1891:
  3066  002582  EFE6  F012         	goto	l2930
  3067  002586                     u1890:
  3068  002586                     
  3069                           ;matrix_keypad.c: 44:     {;matrix_keypad.c: 45:         if(key != 0xFF && once)
  3070  002586  2802               	incf	read_key@key^0,w,c
  3071  002588  B4D8               	btfsc	status,2,c
  3072  00258A  EFC9  F012         	goto	u1901
  3073  00258E  EFCB  F012         	goto	u1900
  3074  002592                     u1901:
  3075  002592  EFD9  F012         	goto	l2926
  3076  002596                     u1900:
  3077  002596  0100               	movlb	0	; () banked
  3078  002598  51E8               	movf	read_key@once& (0+255),w,b
  3079  00259A  B4D8               	btfsc	status,2,c
  3080  00259C  EFD2  F012         	goto	u1911
  3081  0025A0  EFD4  F012         	goto	u1910
  3082  0025A4                     u1911:
  3083  0025A4  EFD9  F012         	goto	l2926
  3084  0025A8                     u1910:
  3085  0025A8                     
  3086                           ; BSR set to: 0
  3087                           ;matrix_keypad.c: 46:         {;matrix_keypad.c: 47:             once = 0;
  3088  0025A8  0E00               	movlw	0
  3089  0025AA  6FE8               	movwf	read_key@once& (0+255),b
  3090                           
  3091                           ;matrix_keypad.c: 48:             return key;
  3092  0025AC  5002               	movf	read_key@key^0,w,c
  3093  0025AE  EFF2  F012         	goto	l156
  3094  0025B2                     l2926:
  3095  0025B2  2802               	incf	read_key@key^0,w,c
  3096  0025B4  A4D8               	btfss	status,2,c
  3097  0025B6  EFDF  F012         	goto	u1921
  3098  0025BA  EFE1  F012         	goto	u1920
  3099  0025BE                     u1921:
  3100  0025BE  EFF1  F012         	goto	l2936
  3101  0025C2                     u1920:
  3102  0025C2                     
  3103                           ;matrix_keypad.c: 51:             once = 1;
  3104  0025C2  0E01               	movlw	1
  3105  0025C4  0100               	movlb	0	; () banked
  3106  0025C6  6FE8               	movwf	read_key@once& (0+255),b
  3107  0025C8  EFF1  F012         	goto	l2936
  3108  0025CC                     l2930:
  3109  0025CC  0401               	decf	read_key@state^0,w,c
  3110  0025CE  A4D8               	btfss	status,2,c
  3111  0025D0  EFEC  F012         	goto	u1931
  3112  0025D4  EFEE  F012         	goto	u1930
  3113  0025D8                     u1931:
  3114  0025D8  EFF1  F012         	goto	l2936
  3115  0025DC                     u1930:
  3116  0025DC                     
  3117                           ;matrix_keypad.c: 54:     {;matrix_keypad.c: 55:         return key;
  3118  0025DC  5002               	movf	read_key@key^0,w,c
  3119  0025DE  EFF2  F012         	goto	l156
  3120  0025E2                     l2936:
  3121                           
  3122                           ;matrix_keypad.c: 57:     return 0xFF;
  3123  0025E2  0EFF               	movlw	255
  3124  0025E4                     l156:
  3125  0025E4  0012               	return		;funcret
  3126  0025E6                     __end_of_read_key:
  3127                           	callstack 0
  3128                           
  3129 ;; *************** function _scan_key *****************
  3130 ;; Defined at:
  3131 ;;		line 14 in file "matrix_keypad.c"
  3132 ;; Parameters:    Size  Location     Type
  3133 ;;		None
  3134 ;; Auto vars:     Size  Location     Type
  3135 ;;		None
  3136 ;; Return value:  Size  Location     Type
  3137 ;;                  1    wreg      unsigned char 
  3138 ;; Registers used:
  3139 ;;		wreg
  3140 ;; Tracked objects:
  3141 ;;		On entry : 0/0
  3142 ;;		On exit  : 0/0
  3143 ;;		Unchanged: 0/0
  3144 ;; Data sizes:     COMRAM   BANK0   BANK1   BANK2   BANK3   BANK4   BANK5
  3145 ;;      Params:         0       0       0       0       0       0       0
  3146 ;;      Locals:         0       0       0       0       0       0       0
  3147 ;;      Temps:          0       0       0       0       0       0       0
  3148 ;;      Totals:         0       0       0       0       0       0       0
  3149 ;;Total ram usage:        0 bytes
  3150 ;; Hardware stack levels used: 1
  3151 ;; This function calls:
  3152 ;;		Nothing
  3153 ;; This function is called by:
  3154 ;;		_read_key
  3155 ;; This function uses a non-reentrant model
  3156 ;;
  3157                           
  3158                           	psect	text6
  3159  002474                     __ptext6:
  3160                           	callstack 0
  3161  002474                     _scan_key:
  3162                           	callstack 28
  3163  002474                     
  3164                           ;matrix_keypad.c: 16:     PORTBbits.RB5 = 0;
  3165  002474  9A81               	bcf	129,5,c	;volatile
  3166                           
  3167                           ;matrix_keypad.c: 17:     PORTBbits.RB6 = 1;
  3168  002476  8C81               	bsf	129,6,c	;volatile
  3169                           
  3170                           ;matrix_keypad.c: 18:     PORTBbits.RB7 = 1;
  3171  002478  8E81               	bsf	129,7,c	;volatile
  3172                           
  3173                           ;matrix_keypad.c: 19:     if(PORTBbits.RB1 == 0)
  3174  00247A  B281               	btfsc	129,1,c	;volatile
  3175  00247C  EF42  F012         	goto	u1821
  3176  002480  EF44  F012         	goto	u1820
  3177  002484                     u1821:
  3178  002484  EF47  F012         	goto	l142
  3179  002488                     u1820:
  3180  002488                     
  3181                           ;matrix_keypad.c: 20:         return 1;
  3182  002488  0E01               	movlw	1
  3183  00248A  EF77  F012         	goto	l143
  3184  00248E                     l142:
  3185                           
  3186                           ;matrix_keypad.c: 21:     PORTBbits.RB5 = 1;
  3187  00248E  8A81               	bsf	129,5,c	;volatile
  3188                           
  3189                           ;matrix_keypad.c: 22:     PORTBbits.RB6 = 0;
  3190  002490  9C81               	bcf	129,6,c	;volatile
  3191                           
  3192                           ;matrix_keypad.c: 23:     PORTBbits.RB7 = 1;
  3193  002492  8E81               	bsf	129,7,c	;volatile
  3194                           
  3195                           ;matrix_keypad.c: 24:     if(PORTBbits.RB1 == 0)
  3196  002494  B281               	btfsc	129,1,c	;volatile
  3197  002496  EF4F  F012         	goto	u1831
  3198  00249A  EF51  F012         	goto	u1830
  3199  00249E                     u1831:
  3200  00249E  EF54  F012         	goto	l144
  3201  0024A2                     u1830:
  3202  0024A2                     
  3203                           ;matrix_keypad.c: 25:         return 2;
  3204  0024A2  0E02               	movlw	2
  3205  0024A4  EF77  F012         	goto	l143
  3206  0024A8                     l144:
  3207  0024A8  B881               	btfsc	129,4,c	;volatile
  3208  0024AA  EF59  F012         	goto	u1841
  3209  0024AE  EF5B  F012         	goto	u1840
  3210  0024B2                     u1841:
  3211  0024B2  EF5E  F012         	goto	l145
  3212  0024B6                     u1840:
  3213  0024B6                     
  3214                           ;matrix_keypad.c: 27:         return 11;
  3215  0024B6  0E0B               	movlw	11
  3216  0024B8  EF77  F012         	goto	l143
  3217  0024BC                     l145:
  3218                           
  3219                           ;matrix_keypad.c: 28:     PORTBbits.RB5 = 1;
  3220  0024BC  8A81               	bsf	129,5,c	;volatile
  3221                           
  3222                           ;matrix_keypad.c: 29:     PORTBbits.RB6 = 1;
  3223  0024BE  8C81               	bsf	129,6,c	;volatile
  3224                           
  3225                           ;matrix_keypad.c: 30:     PORTBbits.RB7 = 0;
  3226  0024C0  9E81               	bcf	129,7,c	;volatile
  3227                           
  3228                           ;matrix_keypad.c: 31:     PORTBbits.RB7 = 0;
  3229  0024C2  9E81               	bcf	129,7,c	;volatile
  3230                           
  3231                           ;matrix_keypad.c: 32:     if(PORTBbits.RB1 == 0)
  3232  0024C4  B281               	btfsc	129,1,c	;volatile
  3233  0024C6  EF67  F012         	goto	u1851
  3234  0024CA  EF69  F012         	goto	u1850
  3235  0024CE                     u1851:
  3236  0024CE  EF6C  F012         	goto	l147
  3237  0024D2                     u1850:
  3238  0024D2                     
  3239                           ;matrix_keypad.c: 33:         return 3;
  3240  0024D2  0E03               	movlw	3
  3241  0024D4  EF77  F012         	goto	l143
  3242  0024D8                     l147:
  3243  0024D8  B881               	btfsc	129,4,c	;volatile
  3244  0024DA  EF71  F012         	goto	u1861
  3245  0024DE  EF73  F012         	goto	u1860
  3246  0024E2                     u1861:
  3247  0024E2  EF76  F012         	goto	l2780
  3248  0024E6                     u1860:
  3249  0024E6                     
  3250                           ;matrix_keypad.c: 35:         return 12;
  3251  0024E6  0E0C               	movlw	12
  3252  0024E8  EF77  F012         	goto	l143
  3253  0024EC                     l2780:
  3254                           
  3255                           ;matrix_keypad.c: 36:     return 0xFF;
  3256  0024EC  0EFF               	movlw	255
  3257  0024EE                     l143:
  3258  0024EE  0012               	return		;funcret
  3259  0024F0                     __end_of_scan_key:
  3260                           	callstack 0
  3261                           
  3262 ;; *************** function _log_event *****************
  3263 ;; Defined at:
  3264 ;;		line 180 in file "black_box.c"
  3265 ;; Parameters:    Size  Location     Type
  3266 ;;  event           2   14[COMRAM] PTR unsigned char 
  3267 ;;		 -> main@ev(24), 
  3268 ;;  speed           1   16[COMRAM] unsigned char 
  3269 ;; Auto vars:     Size  Location     Type
  3270 ;;  i               1   33[COMRAM] unsigned char 
  3271 ;;  log            16   17[COMRAM] unsigned char [16]
  3272 ;;  j               1    0        unsigned char 
  3273 ;;  i               1    0        unsigned char 
  3274 ;; Return value:  Size  Location     Type
  3275 ;;                  1    wreg      void 
  3276 ;; Registers used:
  3277 ;;		wreg, fsr1l, fsr1h, fsr2l, fsr2h, status,2, status,0, prodl, prodh, cstack
  3278 ;; Tracked objects:
  3279 ;;		On entry : 0/0
  3280 ;;		On exit  : 0/0
  3281 ;;		Unchanged: 0/0
  3282 ;; Data sizes:     COMRAM   BANK0   BANK1   BANK2   BANK3   BANK4   BANK5
  3283 ;;      Params:         3       0       0       0       0       0       0
  3284 ;;      Locals:        17       0       0       0       0       0       0
  3285 ;;      Temps:          0       0       0       0       0       0       0
  3286 ;;      Totals:        20       0       0       0       0       0       0
  3287 ;;Total ram usage:       20 bytes
  3288 ;; Hardware stack levels used: 1
  3289 ;; Hardware stack levels required when called: 3
  3290 ;; This function calls:
  3291 ;;		___awdiv
  3292 ;;		___awmod
  3293 ;;		_strncpy
  3294 ;;		_write_external_eeprom
  3295 ;; This function is called by:
  3296 ;;		_main
  3297 ;; This function uses a non-reentrant model
  3298 ;;
  3299                           
  3300                           	psect	text7
  3301  002068                     __ptext7:
  3302                           	callstack 0
  3303  002068                     _log_event:
  3304                           	callstack 27
  3305  002068                     
  3306                           ;black_box.c: 180: void log_event(unsigned char *event,unsigned char speed);black_box.c:
      +                           181: {;black_box.c: 182:     char log[16];;black_box.c: 183:     char i,j;;black_box.c:
      +                           184:     strncpy(log,time,8);
  3307  002068  0E12               	movlw	low log_event@log
  3308  00206A  6E01               	movwf	strncpy@d^0,c
  3309  00206C  0E00               	movlw	high log_event@log
  3310  00206E  6E02               	movwf	(strncpy@d+1)^0,c
  3311  002070  0EE9               	movlw	low _time
  3312  002072  6E03               	movwf	strncpy@s^0,c
  3313  002074  0E00               	movlw	high _time
  3314  002076  6E04               	movwf	(strncpy@s+1)^0,c
  3315  002078  0E00               	movlw	0
  3316  00207A  6E06               	movwf	(strncpy@n+1)^0,c
  3317  00207C  0E08               	movlw	8
  3318  00207E  6E05               	movwf	strncpy@n^0,c
  3319  002080  ECF8  F011         	call	_strncpy	;wreg free
  3320  002084                     
  3321                           ;black_box.c: 185:     log[8] = ' ';
  3322  002084  0E20               	movlw	32
  3323  002086  6E1A               	movwf	(log_event@log+8)^0,c
  3324  002088                     
  3325                           ;black_box.c: 186:     log[9] = ' ';
  3326  002088  0E20               	movlw	32
  3327  00208A  6E1B               	movwf	(log_event@log+9)^0,c
  3328  00208C                     
  3329                           ;black_box.c: 187:     log[10] = event[0];
  3330  00208C  C00F  FFD9         	movff	log_event@event,fsr2l
  3331  002090  C010  FFDA         	movff	log_event@event+1,fsr2h
  3332  002094  50DF               	movf	indf2,w,c
  3333  002096  6E1C               	movwf	(log_event@log+10)^0,c
  3334  002098                     
  3335                           ;black_box.c: 188:     log[11] = event[1];
  3336  002098  EE20 F001          	lfsr	2,1
  3337  00209C  500F               	movf	log_event@event^0,w,c
  3338  00209E  26D9               	addwf	fsr2l,f,c
  3339  0020A0  5010               	movf	(log_event@event+1)^0,w,c
  3340  0020A2  22DA               	addwfc	fsr2h,f,c
  3341  0020A4  50DF               	movf	indf2,w,c
  3342  0020A6  6E1D               	movwf	(log_event@log+11)^0,c
  3343  0020A8                     
  3344                           ;black_box.c: 189:     log[12] = ' ';
  3345  0020A8  0E20               	movlw	32
  3346  0020AA  6E1E               	movwf	(log_event@log+12)^0,c
  3347  0020AC                     
  3348                           ;black_box.c: 190:     log[13] = ' ';
  3349  0020AC  0E20               	movlw	32
  3350  0020AE  6E1F               	movwf	(log_event@log+13)^0,c
  3351  0020B0                     
  3352                           ;black_box.c: 191:     log[14] = speed/10 + '0';
  3353  0020B0  C011  F001         	movff	log_event@speed,___awdiv@dividend
  3354  0020B4  6A02               	clrf	(___awdiv@dividend+1)^0,c
  3355  0020B6  0E00               	movlw	0
  3356  0020B8  6E04               	movwf	(___awdiv@divisor+1)^0,c
  3357  0020BA  0E0A               	movlw	10
  3358  0020BC  6E03               	movwf	___awdiv@divisor^0,c
  3359  0020BE  EC98  F010         	call	___awdiv	;wreg free
  3360  0020C2  5001               	movf	?___awdiv^0,w,c
  3361  0020C4  0F30               	addlw	48
  3362  0020C6  6E20               	movwf	(log_event@log+14)^0,c
  3363  0020C8                     
  3364                           ;black_box.c: 192:     log[15] = speed%10 + '0';
  3365  0020C8  C011  F009         	movff	log_event@speed,___awmod@dividend
  3366  0020CC  6A0A               	clrf	(___awmod@dividend+1)^0,c
  3367  0020CE  0E00               	movlw	0
  3368  0020D0  6E0C               	movwf	(___awmod@divisor+1)^0,c
  3369  0020D2  0E0A               	movlw	10
  3370  0020D4  6E0B               	movwf	___awmod@divisor^0,c
  3371  0020D6  ECFA  F010         	call	___awmod	;wreg free
  3372  0020DA  5009               	movf	?___awmod^0,w,c
  3373  0020DC  0F30               	addlw	48
  3374  0020DE  6E21               	movwf	(log_event@log+15)^0,c
  3375  0020E0                     
  3376                           ;black_box.c: 193:     k++;
  3377  0020E0  0100               	movlb	0	; () banked
  3378  0020E2  2BE7               	incf	_k& (0+255),f,b
  3379  0020E4                     
  3380                           ; BSR set to: 0
  3381                           ;black_box.c: 194:     if(k == 10)
  3382  0020E4  0E0A               	movlw	10
  3383  0020E6  19E7               	xorwf	_k& (0+255),w,b
  3384  0020E8  A4D8               	btfss	status,2,c
  3385  0020EA  EF79  F010         	goto	u2161
  3386  0020EE  EF7B  F010         	goto	u2160
  3387  0020F2                     u2161:
  3388  0020F2  EF7D  F010         	goto	l289
  3389  0020F6                     u2160:
  3390  0020F6                     
  3391                           ; BSR set to: 0
  3392                           ;black_box.c: 195:     {;black_box.c: 196:         k = 0;
  3393  0020F6  0E00               	movlw	0
  3394  0020F8  6FE7               	movwf	_k& (0+255),b
  3395  0020FA                     l289:
  3396                           
  3397                           ; BSR set to: 0
  3398                           ;black_box.c: 198:     for(unsigned char i = 0; i < 16 ; i++)
  3399  0020FA  0E00               	movlw	0
  3400  0020FC  6E22               	movwf	log_event@i_366^0,c
  3401  0020FE                     l3160:
  3402                           
  3403                           ;black_box.c: 199:     {;black_box.c: 200:         write_external_eeprom((k*16) + i,log[
      +                          i]);
  3404  0020FE  0E12               	movlw	low log_event@log
  3405  002100  2422               	addwf	log_event@i_366^0,w,c
  3406  002102  6ED9               	movwf	fsr2l,c
  3407  002104  6ADA               	clrf	fsr2h,c
  3408  002106  0E00               	movlw	high log_event@log
  3409  002108  22DA               	addwfc	fsr2h,f,c
  3410  00210A  50DF               	movf	indf2,w,c
  3411  00210C  6E02               	movwf	write_external_eeprom@data^0,c
  3412  00210E  0100               	movlb	0	; () banked
  3413  002110  51E7               	movf	_k& (0+255),w,b
  3414  002112  0D10               	mullw	16
  3415  002114  50F3               	movf	243,w,c
  3416  002116  2422               	addwf	log_event@i_366^0,w,c
  3417  002118  EC13  F014         	call	_write_external_eeprom
  3418  00211C                     
  3419                           ;black_box.c: 201:     }
  3420  00211C  2A22               	incf	log_event@i_366^0,f,c
  3421  00211E  0E0F               	movlw	15
  3422  002120  6422               	cpfsgt	log_event@i_366^0,c
  3423  002122  EF95  F010         	goto	u2171
  3424  002126  EF97  F010         	goto	u2170
  3425  00212A                     u2171:
  3426  00212A  EF7F  F010         	goto	l3160
  3427  00212E                     u2170:
  3428  00212E  0012               	return		;funcret
  3429  002130                     __end_of_log_event:
  3430                           	callstack 0
  3431                           
  3432 ;; *************** function _write_external_eeprom *****************
  3433 ;; Defined at:
  3434 ;;		line 3 in file "ext_eeprom.c"
  3435 ;; Parameters:    Size  Location     Type
  3436 ;;  address         1    wreg     unsigned char 
  3437 ;;  data            1    1[COMRAM] unsigned char 
  3438 ;; Auto vars:     Size  Location     Type
  3439 ;;  address         1    4[COMRAM] unsigned char 
  3440 ;;  i               2    2[COMRAM] unsigned int 
  3441 ;; Return value:  Size  Location     Type
  3442 ;;                  1    wreg      void 
  3443 ;; Registers used:
  3444 ;;		wreg, status,2, status,0, cstack
  3445 ;; Tracked objects:
  3446 ;;		On entry : 0/0
  3447 ;;		On exit  : 0/0
  3448 ;;		Unchanged: 0/0
  3449 ;; Data sizes:     COMRAM   BANK0   BANK1   BANK2   BANK3   BANK4   BANK5
  3450 ;;      Params:         1       0       0       0       0       0       0
  3451 ;;      Locals:         3       0       0       0       0       0       0
  3452 ;;      Temps:          0       0       0       0       0       0       0
  3453 ;;      Totals:         4       0       0       0       0       0       0
  3454 ;;Total ram usage:        4 bytes
  3455 ;; Hardware stack levels used: 1
  3456 ;; Hardware stack levels required when called: 2
  3457 ;; This function calls:
  3458 ;;		_i2c_start
  3459 ;;		_i2c_stop
  3460 ;;		_i2c_write
  3461 ;; This function is called by:
  3462 ;;		_log_event
  3463 ;; This function uses a non-reentrant model
  3464 ;;
  3465                           
  3466                           	psect	text8
  3467  002826                     __ptext8:
  3468                           	callstack 0
  3469  002826                     _write_external_eeprom:
  3470                           	callstack 27
  3471                           
  3472                           ;incstack = 0
  3473                           ;write_external_eeprom@address stored from wreg
  3474  002826  6E05               	movwf	write_external_eeprom@address^0,c
  3475  002828                     
  3476                           ;ext_eeprom.c: 3: void write_external_eeprom(unsigned char address, unsigned char data);
      +                          ext_eeprom.c: 4: {;ext_eeprom.c: 5:  i2c_start();
  3477  002828  EC4C  F015         	call	_i2c_start	;wreg free
  3478  00282C                     
  3479                           ;ext_eeprom.c: 6:  i2c_write(0xA0);
  3480  00282C  0EA0               	movlw	160
  3481  00282E  EC3C  F015         	call	_i2c_write
  3482  002832                     
  3483                           ;ext_eeprom.c: 7:  i2c_write(address);
  3484  002832  5005               	movf	write_external_eeprom@address^0,w,c
  3485  002834  EC3C  F015         	call	_i2c_write
  3486  002838                     
  3487                           ;ext_eeprom.c: 8:  i2c_write(data);
  3488  002838  5002               	movf	write_external_eeprom@data^0,w,c
  3489  00283A  EC3C  F015         	call	_i2c_write
  3490  00283E                     
  3491                           ;ext_eeprom.c: 9:  i2c_stop();
  3492  00283E  EC48  F015         	call	_i2c_stop	;wreg free
  3493  002842                     
  3494                           ;ext_eeprom.c: 10:  for(unsigned int i = 3000;i--;);
  3495  002842  0E0B               	movlw	11
  3496  002844  6E04               	movwf	(write_external_eeprom@i+1)^0,c
  3497  002846  0EB8               	movlw	184
  3498  002848  6E03               	movwf	write_external_eeprom@i^0,c
  3499  00284A                     l3016:
  3500  00284A  0603               	decf	write_external_eeprom@i^0,f,c
  3501  00284C  A0D8               	btfss	status,0,c
  3502  00284E  0604               	decf	(write_external_eeprom@i+1)^0,f,c
  3503  002850  2803               	incf	write_external_eeprom@i^0,w,c
  3504  002852  E106               	bnz	u2021
  3505  002854  2804               	incf	(write_external_eeprom@i+1)^0,w,c
  3506  002856  A4D8               	btfss	status,2,c
  3507  002858  EF30  F014         	goto	u2021
  3508  00285C  EF32  F014         	goto	u2020
  3509  002860                     u2021:
  3510  002860  EF25  F014         	goto	l3016
  3511  002864                     u2020:
  3512  002864  0012               	return		;funcret
  3513  002866                     __end_of_write_external_eeprom:
  3514                           	callstack 0
  3515                           
  3516 ;; *************** function _strncpy *****************
  3517 ;; Defined at:
  3518 ;;		line 3 in file "C:\Program Files\Microchip\xc8\v2.36\pic\sources\c99\common\strncpy.c"
  3519 ;; Parameters:    Size  Location     Type
  3520 ;;  d               2    0[COMRAM] PTR unsigned char 
  3521 ;;		 -> log_event@log(16), 
  3522 ;;  s               2    2[COMRAM] PTR const unsigned char 
  3523 ;;		 -> time(9), 
  3524 ;;  n               2    4[COMRAM] unsigned int 
  3525 ;; Auto vars:     Size  Location     Type
  3526 ;;  cp              2    6[COMRAM] PTR unsigned char 
  3527 ;;		 -> log_event@log(16), 
  3528 ;; Return value:  Size  Location     Type
  3529 ;;                  2    0[COMRAM] PTR unsigned char 
  3530 ;; Registers used:
  3531 ;;		wreg, fsr1l, fsr1h, fsr2l, fsr2h, status,2, status,0
  3532 ;; Tracked objects:
  3533 ;;		On entry : 0/0
  3534 ;;		On exit  : 0/0
  3535 ;;		Unchanged: 0/0
  3536 ;; Data sizes:     COMRAM   BANK0   BANK1   BANK2   BANK3   BANK4   BANK5
  3537 ;;      Params:         6       0       0       0       0       0       0
  3538 ;;      Locals:         2       0       0       0       0       0       0
  3539 ;;      Temps:          0       0       0       0       0       0       0
  3540 ;;      Totals:         8       0       0       0       0       0       0
  3541 ;;Total ram usage:        8 bytes
  3542 ;; Hardware stack levels used: 1
  3543 ;; This function calls:
  3544 ;;		Nothing
  3545 ;; This function is called by:
  3546 ;;		_log_event
  3547 ;; This function uses a non-reentrant model
  3548 ;;
  3549                           
  3550                           	psect	text9
  3551  0023F0                     __ptext9:
  3552                           	callstack 0
  3553  0023F0                     _strncpy:
  3554                           	callstack 29
  3555  0023F0  C001  F007         	movff	strncpy@d,strncpy@cp
  3556  0023F4  C002  F008         	movff	strncpy@d+1,strncpy@cp+1
  3557  0023F8  EF19  F012         	goto	l2996
  3558  0023FC                     l2990:
  3559  0023FC  0605               	decf	strncpy@n^0,f,c
  3560  0023FE  A0D8               	btfss	status,0,c
  3561  002400  0606               	decf	(strncpy@n+1)^0,f,c
  3562  002402  C003  FFD9         	movff	strncpy@s,fsr2l
  3563  002406  C004  FFDA         	movff	strncpy@s+1,fsr2h
  3564  00240A  4A03               	infsnz	strncpy@s^0,f,c
  3565  00240C  2A04               	incf	(strncpy@s+1)^0,f,c
  3566  00240E  C007  FFE1         	movff	strncpy@cp,fsr1l
  3567  002412  C008  FFE2         	movff	strncpy@cp+1,fsr1h
  3568  002416  4A07               	infsnz	strncpy@cp^0,f,c
  3569  002418  2A08               	incf	(strncpy@cp+1)^0,f,c
  3570  00241A  CFDF FFE7          	movff	indf2,indf1
  3571  00241E  50E7               	movf	indf1,w,c
  3572  002420  A4D8               	btfss	status,2,c
  3573  002422  EF15  F012         	goto	u1991
  3574  002426  EF17  F012         	goto	u1990
  3575  00242A                     u1991:
  3576  00242A  EF19  F012         	goto	l2996
  3577  00242E                     u1990:
  3578  00242E  EF2C  F012         	goto	l3002
  3579  002432                     l2996:
  3580  002432  5005               	movf	strncpy@n^0,w,c
  3581  002434  1006               	iorwf	(strncpy@n+1)^0,w,c
  3582  002436  A4D8               	btfss	status,2,c
  3583  002438  EF20  F012         	goto	u2001
  3584  00243C  EF22  F012         	goto	u2000
  3585  002440                     u2001:
  3586  002440  EFFE  F011         	goto	l2990
  3587  002444                     u2000:
  3588  002444  EF2C  F012         	goto	l3002
  3589  002448                     l2998:
  3590  002448  C007  FFD9         	movff	strncpy@cp,fsr2l
  3591  00244C  C008  FFDA         	movff	strncpy@cp+1,fsr2h
  3592  002450  0E00               	movlw	0
  3593  002452  6EDF               	movwf	indf2,c
  3594  002454  4A07               	infsnz	strncpy@cp^0,f,c
  3595  002456  2A08               	incf	(strncpy@cp+1)^0,f,c
  3596  002458                     l3002:
  3597  002458  0605               	decf	strncpy@n^0,f,c
  3598  00245A  A0D8               	btfss	status,0,c
  3599  00245C  0606               	decf	(strncpy@n+1)^0,f,c
  3600  00245E  2805               	incf	strncpy@n^0,w,c
  3601  002460  E106               	bnz	u2011
  3602  002462  2806               	incf	(strncpy@n+1)^0,w,c
  3603  002464  A4D8               	btfss	status,2,c
  3604  002466  EF37  F012         	goto	u2011
  3605  00246A  EF39  F012         	goto	u2010
  3606  00246E                     u2011:
  3607  00246E  EF24  F012         	goto	l2998
  3608  002472                     u2010:
  3609  002472  0012               	return		;funcret
  3610  002474                     __end_of_strncpy:
  3611                           	callstack 0
  3612                           
  3613 ;; *************** function _init_config *****************
  3614 ;; Defined at:
  3615 ;;		line 12 in file "main.c"
  3616 ;; Parameters:    Size  Location     Type
  3617 ;;		None
  3618 ;; Auto vars:     Size  Location     Type
  3619 ;;		None
  3620 ;; Return value:  Size  Location     Type
  3621 ;;                  1    wreg      void 
  3622 ;; Registers used:
  3623 ;;		wreg, status,2, status,0, cstack
  3624 ;; Tracked objects:
  3625 ;;		On entry : 0/0
  3626 ;;		On exit  : 0/0
  3627 ;;		Unchanged: 0/0
  3628 ;; Data sizes:     COMRAM   BANK0   BANK1   BANK2   BANK3   BANK4   BANK5
  3629 ;;      Params:         0       0       0       0       0       0       0
  3630 ;;      Locals:         0       0       0       0       0       0       0
  3631 ;;      Temps:          0       0       0       0       0       0       0
  3632 ;;      Totals:         0       0       0       0       0       0       0
  3633 ;;Total ram usage:        0 bytes
  3634 ;; Hardware stack levels used: 1
  3635 ;; Hardware stack levels required when called: 5
  3636 ;; This function calls:
  3637 ;;		_init_adc
  3638 ;;		_init_clcd
  3639 ;;		_init_ds1307
  3640 ;;		_init_i2c
  3641 ;;		_init_matrix
  3642 ;;		_init_uart
  3643 ;; This function is called by:
  3644 ;;		_main
  3645 ;; This function uses a non-reentrant model
  3646 ;;
  3647                           
  3648                           	psect	text10
  3649  0029CE                     __ptext10:
  3650                           	callstack 0
  3651  0029CE                     _init_config:
  3652                           	callstack 25
  3653  0029CE                     
  3654                           ;main.c: 15:     init_uart();
  3655  0029CE  EC85  F014         	call	_init_uart	;wreg free
  3656  0029D2                     
  3657                           ;main.c: 16:     init_clcd();
  3658  0029D2  EC52  F011         	call	_init_clcd	;wreg free
  3659  0029D6                     
  3660                           ;main.c: 17:     init_matrix();
  3661  0029D6  EC1F  F015         	call	_init_matrix	;wreg free
  3662                           
  3663                           ;main.c: 18:     init_adc();
  3664  0029DA  EC36  F015         	call	_init_adc	;wreg free
  3665                           
  3666                           ;main.c: 19:     init_i2c();
  3667  0029DE  EC00  F015         	call	_init_i2c	;wreg free
  3668  0029E2                     
  3669                           ;main.c: 20:     init_ds1307();
  3670  0029E2  ECCF  F013         	call	_init_ds1307	;wreg free
  3671  0029E6  0012               	return		;funcret
  3672  0029E8                     __end_of_init_config:
  3673                           	callstack 0
  3674                           
  3675 ;; *************** function _init_uart *****************
  3676 ;; Defined at:
  3677 ;;		line 4 in file "uart.c"
  3678 ;; Parameters:    Size  Location     Type
  3679 ;;		None
  3680 ;; Auto vars:     Size  Location     Type
  3681 ;;		None
  3682 ;; Return value:  Size  Location     Type
  3683 ;;                  1    wreg      void 
  3684 ;; Registers used:
  3685 ;;		wreg, status,2
  3686 ;; Tracked objects:
  3687 ;;		On entry : 0/0
  3688 ;;		On exit  : 0/0
  3689 ;;		Unchanged: 0/0
  3690 ;; Data sizes:     COMRAM   BANK0   BANK1   BANK2   BANK3   BANK4   BANK5
  3691 ;;      Params:         0       0       0       0       0       0       0
  3692 ;;      Locals:         0       0       0       0       0       0       0
  3693 ;;      Temps:          0       0       0       0       0       0       0
  3694 ;;      Totals:         0       0       0       0       0       0       0
  3695 ;;Total ram usage:        0 bytes
  3696 ;; Hardware stack levels used: 1
  3697 ;; This function calls:
  3698 ;;		Nothing
  3699 ;; This function is called by:
  3700 ;;		_init_config
  3701 ;; This function uses a non-reentrant model
  3702 ;;
  3703                           
  3704                           	psect	text11
  3705  00290A                     __ptext11:
  3706                           	callstack 0
  3707  00290A                     _init_uart:
  3708                           	callstack 29
  3709  00290A                     
  3710                           ;uart.c: 7:  TRISC7 = 1;
  3711  00290A  8E94               	bsf	3988,7,c	;volatile
  3712                           
  3713                           ;uart.c: 8:  TRISC6 = 0;
  3714  00290C  9C94               	bcf	3988,6,c	;volatile
  3715                           
  3716                           ;uart.c: 12:  TX9 = 0;
  3717  00290E  9CAC               	bcf	4012,6,c	;volatile
  3718                           
  3719                           ;uart.c: 14:  TXEN = 1;
  3720  002910  8AAC               	bsf	4012,5,c	;volatile
  3721                           
  3722                           ;uart.c: 17:  SYNC = 0;
  3723  002912  98AC               	bcf	4012,4,c	;volatile
  3724                           
  3725                           ;uart.c: 19:  SENDB = 0;
  3726  002914  96AC               	bcf	4012,3,c	;volatile
  3727                           
  3728                           ;uart.c: 22:  BRGH = 1;
  3729  002916  84AC               	bsf	4012,2,c	;volatile
  3730                           
  3731                           ;uart.c: 26:  SPEN = 1;
  3732  002918  8EAB               	bsf	4011,7,c	;volatile
  3733                           
  3734                           ;uart.c: 28:  RX9 = 0;
  3735  00291A  9CAB               	bcf	4011,6,c	;volatile
  3736                           
  3737                           ;uart.c: 30:  CREN = 1;
  3738  00291C  88AB               	bsf	4011,4,c	;volatile
  3739                           
  3740                           ;uart.c: 34:  ABDOVF = 0;
  3741  00291E  9EB8               	bcf	4024,7,c	;volatile
  3742                           
  3743                           ;uart.c: 36:  BRG16 = 0;
  3744  002920  96B8               	bcf	4024,3,c	;volatile
  3745                           
  3746                           ;uart.c: 38:  WUE = 0;
  3747  002922  92B8               	bcf	4024,1,c	;volatile
  3748                           
  3749                           ;uart.c: 40:  ABDEN = 0;
  3750  002924  90B8               	bcf	4024,0,c	;volatile
  3751  002926                     
  3752                           ;uart.c: 44:  SPBRG = 129;
  3753  002926  0E81               	movlw	129
  3754  002928  6EAF               	movwf	175,c	;volatile
  3755  00292A                     
  3756                           ;uart.c: 48:  TXIE = 1;
  3757  00292A  889D               	bsf	3997,4,c	;volatile
  3758  00292C                     
  3759                           ;uart.c: 50:  TXIF = 0;
  3760  00292C  989E               	bcf	3998,4,c	;volatile
  3761  00292E                     
  3762                           ;uart.c: 52:  RCIE = 1;
  3763  00292E  8A9D               	bsf	3997,5,c	;volatile
  3764  002930                     
  3765                           ;uart.c: 54:  RCIF = 0;
  3766  002930  9A9E               	bcf	3998,5,c	;volatile
  3767  002932  0012               	return		;funcret
  3768  002934                     __end_of_init_uart:
  3769                           	callstack 0
  3770                           
  3771 ;; *************** function _init_matrix *****************
  3772 ;; Defined at:
  3773 ;;		line 3 in file "matrix_keypad.c"
  3774 ;; Parameters:    Size  Location     Type
  3775 ;;		None
  3776 ;; Auto vars:     Size  Location     Type
  3777 ;;		None
  3778 ;; Return value:  Size  Location     Type
  3779 ;;                  1    wreg      void 
  3780 ;; Registers used:
  3781 ;;		wreg, status,2, status,0
  3782 ;; Tracked objects:
  3783 ;;		On entry : 0/0
  3784 ;;		On exit  : 0/0
  3785 ;;		Unchanged: 0/0
  3786 ;; Data sizes:     COMRAM   BANK0   BANK1   BANK2   BANK3   BANK4   BANK5
  3787 ;;      Params:         0       0       0       0       0       0       0
  3788 ;;      Locals:         0       0       0       0       0       0       0
  3789 ;;      Temps:          0       0       0       0       0       0       0
  3790 ;;      Totals:         0       0       0       0       0       0       0
  3791 ;;Total ram usage:        0 bytes
  3792 ;; Hardware stack levels used: 1
  3793 ;; This function calls:
  3794 ;;		Nothing
  3795 ;; This function is called by:
  3796 ;;		_init_config
  3797 ;; This function uses a non-reentrant model
  3798 ;;
  3799                           
  3800                           	psect	text12
  3801  002A3E                     __ptext12:
  3802                           	callstack 0
  3803  002A3E                     _init_matrix:
  3804                           	callstack 29
  3805  002A3E                     
  3806                           ;matrix_keypad.c: 5:     ADCON1 = 0x0F;
  3807  002A3E  0E0F               	movlw	15
  3808  002A40  6EC1               	movwf	193,c	;volatile
  3809                           
  3810                           ;matrix_keypad.c: 7:     TRISB = 0x1E;
  3811  002A42  0E1E               	movlw	30
  3812  002A44  6E93               	movwf	147,c	;volatile
  3813  002A46                     
  3814                           ;matrix_keypad.c: 9:     RBPU = 0;
  3815  002A46  9EF1               	bcf	4081,7,c	;volatile
  3816  002A48                     
  3817                           ;matrix_keypad.c: 11:     PORTB |= 0xE0;
  3818  002A48  0EE0               	movlw	224
  3819  002A4A  1281               	iorwf	129,f,c	;volatile
  3820  002A4C  0012               	return		;funcret
  3821  002A4E                     __end_of_init_matrix:
  3822                           	callstack 0
  3823                           
  3824 ;; *************** function _init_i2c *****************
  3825 ;; Defined at:
  3826 ;;		line 6 in file "i2c.c"
  3827 ;; Parameters:    Size  Location     Type
  3828 ;;		None
  3829 ;; Auto vars:     Size  Location     Type
  3830 ;;		None
  3831 ;; Return value:  Size  Location     Type
  3832 ;;                  1    wreg      void 
  3833 ;; Registers used:
  3834 ;;		wreg, status,2
  3835 ;; Tracked objects:
  3836 ;;		On entry : 0/0
  3837 ;;		On exit  : 0/0
  3838 ;;		Unchanged: 0/0
  3839 ;; Data sizes:     COMRAM   BANK0   BANK1   BANK2   BANK3   BANK4   BANK5
  3840 ;;      Params:         0       0       0       0       0       0       0
  3841 ;;      Locals:         0       0       0       0       0       0       0
  3842 ;;      Temps:          0       0       0       0       0       0       0
  3843 ;;      Totals:         0       0       0       0       0       0       0
  3844 ;;Total ram usage:        0 bytes
  3845 ;; Hardware stack levels used: 1
  3846 ;; This function calls:
  3847 ;;		Nothing
  3848 ;; This function is called by:
  3849 ;;		_init_config
  3850 ;; This function uses a non-reentrant model
  3851 ;;
  3852                           
  3853                           	psect	text13
  3854  002A00                     __ptext13:
  3855                           	callstack 0
  3856  002A00                     _init_i2c:
  3857                           	callstack 29
  3858  002A00                     
  3859                           ;i2c.c: 9:  TRISC3 = 1;
  3860  002A00  8694               	bsf	3988,3,c	;volatile
  3861                           
  3862                           ;i2c.c: 10:  TRISC4 = 1;
  3863  002A02  8894               	bsf	3988,4,c	;volatile
  3864  002A04                     
  3865                           ;i2c.c: 12:  SSPCON1 = 0x28;
  3866  002A04  0E28               	movlw	40
  3867  002A06  6EC6               	movwf	198,c	;volatile
  3868                           
  3869                           ;i2c.c: 14:  SSPADD = 0x31;
  3870  002A08  0E31               	movlw	49
  3871  002A0A  6EC8               	movwf	200,c	;volatile
  3872  002A0C                     
  3873                           ;i2c.c: 16:  CKE = 0;
  3874  002A0C  9CC7               	bcf	4039,6,c	;volatile
  3875  002A0E                     
  3876                           ;i2c.c: 18:  SMP = 1;
  3877  002A0E  8EC7               	bsf	4039,7,c	;volatile
  3878  002A10                     
  3879                           ;i2c.c: 20:  SSPIF = 0;
  3880  002A10  969E               	bcf	3998,3,c	;volatile
  3881  002A12                     
  3882                           ;i2c.c: 22:  BCLIF = 0;
  3883  002A12  96A1               	bcf	4001,3,c	;volatile
  3884  002A14  0012               	return		;funcret
  3885  002A16                     __end_of_init_i2c:
  3886                           	callstack 0
  3887                           
  3888 ;; *************** function _init_ds1307 *****************
  3889 ;; Defined at:
  3890 ;;		line 4 in file "rtc.c"
  3891 ;; Parameters:    Size  Location     Type
  3892 ;;		None
  3893 ;; Auto vars:     Size  Location     Type
  3894 ;;  dummy           1    3[COMRAM] unsigned char 
  3895 ;; Return value:  Size  Location     Type
  3896 ;;                  1    wreg      void 
  3897 ;; Registers used:
  3898 ;;		wreg, status,2, status,0, cstack
  3899 ;; Tracked objects:
  3900 ;;		On entry : 0/0
  3901 ;;		On exit  : 0/0
  3902 ;;		Unchanged: 0/0
  3903 ;; Data sizes:     COMRAM   BANK0   BANK1   BANK2   BANK3   BANK4   BANK5
  3904 ;;      Params:         0       0       0       0       0       0       0
  3905 ;;      Locals:         1       0       0       0       0       0       0
  3906 ;;      Temps:          0       0       0       0       0       0       0
  3907 ;;      Totals:         1       0       0       0       0       0       0
  3908 ;;Total ram usage:        1 bytes
  3909 ;; Hardware stack levels used: 1
  3910 ;; Hardware stack levels required when called: 4
  3911 ;; This function calls:
  3912 ;;		_read_ds1307
  3913 ;;		_write_ds1307
  3914 ;; This function is called by:
  3915 ;;		_init_config
  3916 ;; This function uses a non-reentrant model
  3917 ;;
  3918                           
  3919                           	psect	text14
  3920  00279E                     __ptext14:
  3921                           	callstack 0
  3922  00279E                     _init_ds1307:
  3923                           	callstack 25
  3924  00279E                     
  3925                           ;rtc.c: 6:  unsigned char dummy;;rtc.c: 9:  dummy = read_ds1307(0x00);
  3926  00279E  0E00               	movlw	0
  3927  0027A0  ECAF  F014         	call	_read_ds1307
  3928  0027A4  6E04               	movwf	init_ds1307@dummy^0,c
  3929  0027A6                     
  3930                           ;rtc.c: 10:  write_ds1307(0x00, dummy | 0x80);
  3931  0027A6  5004               	movf	init_ds1307@dummy^0,w,c
  3932  0027A8  0980               	iorlw	128
  3933  0027AA  6E02               	movwf	write_ds1307@data^0,c
  3934  0027AC  0E00               	movlw	0
  3935  0027AE  ECD8  F014         	call	_write_ds1307
  3936  0027B2                     
  3937                           ;rtc.c: 13:  dummy = read_ds1307(0x02);
  3938  0027B2  0E02               	movlw	2
  3939  0027B4  ECAF  F014         	call	_read_ds1307
  3940  0027B8  6E04               	movwf	init_ds1307@dummy^0,c
  3941                           
  3942                           ;rtc.c: 14:  write_ds1307(0x02, dummy | 0x40);
  3943  0027BA  5004               	movf	init_ds1307@dummy^0,w,c
  3944  0027BC  0940               	iorlw	64
  3945  0027BE  6E02               	movwf	write_ds1307@data^0,c
  3946  0027C0  0E02               	movlw	2
  3947  0027C2  ECD8  F014         	call	_write_ds1307
  3948  0027C6                     
  3949                           ;rtc.c: 29:  write_ds1307(0x07, 0x93);
  3950  0027C6  0E93               	movlw	147
  3951  0027C8  6E02               	movwf	write_ds1307@data^0,c
  3952  0027CA  0E07               	movlw	7
  3953  0027CC  ECD8  F014         	call	_write_ds1307
  3954  0027D0                     
  3955                           ;rtc.c: 32:  dummy = read_ds1307(0x00);
  3956  0027D0  0E00               	movlw	0
  3957  0027D2  ECAF  F014         	call	_read_ds1307
  3958  0027D6  6E04               	movwf	init_ds1307@dummy^0,c
  3959                           
  3960                           ;rtc.c: 33:  write_ds1307(0x00, dummy & 0x7F);
  3961  0027D8  5004               	movf	init_ds1307@dummy^0,w,c
  3962  0027DA  0B7F               	andlw	127
  3963  0027DC  6E02               	movwf	write_ds1307@data^0,c
  3964  0027DE  0E00               	movlw	0
  3965  0027E0  ECD8  F014         	call	_write_ds1307
  3966  0027E4  0012               	return		;funcret
  3967  0027E6                     __end_of_init_ds1307:
  3968                           	callstack 0
  3969                           
  3970 ;; *************** function _write_ds1307 *****************
  3971 ;; Defined at:
  3972 ;;		line 37 in file "rtc.c"
  3973 ;; Parameters:    Size  Location     Type
  3974 ;;  address         1    wreg     unsigned char 
  3975 ;;  data            1    1[COMRAM] unsigned char 
  3976 ;; Auto vars:     Size  Location     Type
  3977 ;;  address         1    2[COMRAM] unsigned char 
  3978 ;; Return value:  Size  Location     Type
  3979 ;;                  1    wreg      void 
  3980 ;; Registers used:
  3981 ;;		wreg, status,2, cstack
  3982 ;; Tracked objects:
  3983 ;;		On entry : 0/0
  3984 ;;		On exit  : 0/0
  3985 ;;		Unchanged: 0/0
  3986 ;; Data sizes:     COMRAM   BANK0   BANK1   BANK2   BANK3   BANK4   BANK5
  3987 ;;      Params:         1       0       0       0       0       0       0
  3988 ;;      Locals:         1       0       0       0       0       0       0
  3989 ;;      Temps:          0       0       0       0       0       0       0
  3990 ;;      Totals:         2       0       0       0       0       0       0
  3991 ;;Total ram usage:        2 bytes
  3992 ;; Hardware stack levels used: 1
  3993 ;; Hardware stack levels required when called: 2
  3994 ;; This function calls:
  3995 ;;		_i2c_start
  3996 ;;		_i2c_stop
  3997 ;;		_i2c_write
  3998 ;; This function is called by:
  3999 ;;		_set_time
  4000 ;;		_init_ds1307
  4001 ;; This function uses a non-reentrant model
  4002 ;;
  4003                           
  4004                           	psect	text15
  4005  0029B0                     __ptext15:
  4006                           	callstack 0
  4007  0029B0                     _write_ds1307:
  4008                           	callstack 27
  4009                           
  4010                           ;incstack = 0
  4011                           ;write_ds1307@address stored from wreg
  4012  0029B0  6E03               	movwf	write_ds1307@address^0,c
  4013  0029B2                     
  4014                           ;rtc.c: 37: void write_ds1307(unsigned char address, unsigned char data);rtc.c: 38: {;rt
      +                          c.c: 39:  i2c_start();
  4015  0029B2  EC4C  F015         	call	_i2c_start	;wreg free
  4016  0029B6                     
  4017                           ;rtc.c: 40:  i2c_write(0xD0);
  4018  0029B6  0ED0               	movlw	208
  4019  0029B8  EC3C  F015         	call	_i2c_write
  4020  0029BC                     
  4021                           ;rtc.c: 41:  i2c_write(address);
  4022  0029BC  5003               	movf	write_ds1307@address^0,w,c
  4023  0029BE  EC3C  F015         	call	_i2c_write
  4024  0029C2                     
  4025                           ;rtc.c: 42:  i2c_write(data);
  4026  0029C2  5002               	movf	write_ds1307@data^0,w,c
  4027  0029C4  EC3C  F015         	call	_i2c_write
  4028  0029C8                     
  4029                           ;rtc.c: 43:  i2c_stop();
  4030  0029C8  EC48  F015         	call	_i2c_stop	;wreg free
  4031  0029CC  0012               	return		;funcret
  4032  0029CE                     __end_of_write_ds1307:
  4033                           	callstack 0
  4034                           
  4035 ;; *************** function _init_clcd *****************
  4036 ;; Defined at:
  4037 ;;		line 3 in file "clcd.c"
  4038 ;; Parameters:    Size  Location     Type
  4039 ;;		None
  4040 ;; Auto vars:     Size  Location     Type
  4041 ;;		None
  4042 ;; Return value:  Size  Location     Type
  4043 ;;                  1    wreg      void 
  4044 ;; Registers used:
  4045 ;;		wreg, status,2, status,0, cstack
  4046 ;; Tracked objects:
  4047 ;;		On entry : 0/0
  4048 ;;		On exit  : 0/0
  4049 ;;		Unchanged: 0/0
  4050 ;; Data sizes:     COMRAM   BANK0   BANK1   BANK2   BANK3   BANK4   BANK5
  4051 ;;      Params:         0       0       0       0       0       0       0
  4052 ;;      Locals:         0       0       0       0       0       0       0
  4053 ;;      Temps:          1       0       0       0       0       0       0
  4054 ;;      Totals:         1       0       0       0       0       0       0
  4055 ;;Total ram usage:        1 bytes
  4056 ;; Hardware stack levels used: 1
  4057 ;; Hardware stack levels required when called: 1
  4058 ;; This function calls:
  4059 ;;		_clcd_write
  4060 ;; This function is called by:
  4061 ;;		_init_config
  4062 ;; This function uses a non-reentrant model
  4063 ;;
  4064                           
  4065                           	psect	text16
  4066  0022A4                     __ptext16:
  4067                           	callstack 0
  4068  0022A4                     _init_clcd:
  4069                           	callstack 28
  4070  0022A4                     
  4071                           ;clcd.c: 6:  TRISD = 0x00;
  4072  0022A4  0E00               	movlw	0
  4073  0022A6  6E95               	movwf	149,c	;volatile
  4074  0022A8                     
  4075                           ;clcd.c: 8:  TRISC = TRISC & 0xF8;
  4076  0022A8  5094               	movf	148,w,c	;volatile
  4077  0022AA  0BF8               	andlw	248
  4078  0022AC  6E94               	movwf	148,c	;volatile
  4079  0022AE                     
  4080                           ;clcd.c: 10:  RC0 = 0;
  4081  0022AE  9082               	bcf	3970,0,c	;volatile
  4082  0022B0                     
  4083                           ;clcd.c: 14:     _delay((unsigned long)((30)*(20000000/4000.0)));
  4084  0022B0  0EC3               	movlw	195
  4085  0022B2  6E03               	movwf	??_init_clcd^0,c
  4086  0022B4  0ECD               	movlw	205
  4087  0022B6                     u3537:
  4088  0022B6  2EE8               	decfsz	wreg,f,c
  4089  0022B8  D7FE               	bra	u3537
  4090  0022BA  2E03               	decfsz	??_init_clcd^0,f,c
  4091  0022BC  D7FC               	bra	u3537
  4092  0022BE  F000               	nop	
  4093  0022C0                     
  4094                           ;clcd.c: 17:     clcd_write(0x33, 0 );
  4095  0022C0  0E00               	movlw	0
  4096  0022C2  6E01               	movwf	clcd_write@control_bit^0,c
  4097  0022C4  0E33               	movlw	51
  4098  0022C6  EC51  F014         	call	_clcd_write
  4099  0022CA                     
  4100                           ;clcd.c: 18:     _delay((unsigned long)((4100)*(20000000/4000000.0)));
  4101  0022CA  0E1B               	movlw	27
  4102  0022CC  6E03               	movwf	??_init_clcd^0,c
  4103  0022CE  0E9E               	movlw	158
  4104  0022D0                     u3547:
  4105  0022D0  2EE8               	decfsz	wreg,f,c
  4106  0022D2  D7FE               	bra	u3547
  4107  0022D4  2E03               	decfsz	??_init_clcd^0,f,c
  4108  0022D6  D7FC               	bra	u3547
  4109  0022D8  D000               	nop2	
  4110  0022DA                     
  4111                           ;clcd.c: 19:     clcd_write(0x33, 0 );
  4112  0022DA  0E00               	movlw	0
  4113  0022DC  6E01               	movwf	clcd_write@control_bit^0,c
  4114  0022DE  0E33               	movlw	51
  4115  0022E0  EC51  F014         	call	_clcd_write
  4116  0022E4                     
  4117                           ;clcd.c: 20:     _delay((unsigned long)((100)*(20000000/4000000.0)));
  4118  0022E4  0EA6               	movlw	166
  4119  0022E6                     u3557:
  4120  0022E6  2EE8               	decfsz	wreg,f,c
  4121  0022E8  D7FE               	bra	u3557
  4122  0022EA  D000               	nop2	
  4123  0022EC                     
  4124                           ;clcd.c: 21:     clcd_write(0x33, 0 );
  4125  0022EC  0E00               	movlw	0
  4126  0022EE  6E01               	movwf	clcd_write@control_bit^0,c
  4127  0022F0  0E33               	movlw	51
  4128  0022F2  EC51  F014         	call	_clcd_write
  4129  0022F6                     
  4130                           ;clcd.c: 22:     _delay((unsigned long)((1)*(20000000/4000000.0)));
  4131  0022F6  D000               	nop2		;2 cycle nop
  4132  0022F8  D000               	nop2		;2 cycle nop
  4133  0022FA  F000               	nop	
  4134  0022FC                     
  4135                           ;clcd.c: 24:     clcd_write(0x02, 0);
  4136  0022FC  0E00               	movlw	0
  4137  0022FE  6E01               	movwf	clcd_write@control_bit^0,c
  4138  002300  0E02               	movlw	2
  4139  002302  EC51  F014         	call	_clcd_write
  4140  002306                     
  4141                           ;clcd.c: 25:     _delay((unsigned long)((100)*(20000000/4000000.0)));
  4142  002306  0EA6               	movlw	166
  4143  002308                     u3567:
  4144  002308  2EE8               	decfsz	wreg,f,c
  4145  00230A  D7FE               	bra	u3567
  4146  00230C  D000               	nop2	
  4147  00230E                     
  4148                           ;clcd.c: 26:     clcd_write(0x38, 0);
  4149  00230E  0E00               	movlw	0
  4150  002310  6E01               	movwf	clcd_write@control_bit^0,c
  4151  002312  0E38               	movlw	56
  4152  002314  EC51  F014         	call	_clcd_write
  4153  002318                     
  4154                           ;clcd.c: 27:     _delay((unsigned long)((100)*(20000000/4000000.0)));
  4155  002318  0EA6               	movlw	166
  4156  00231A                     u3577:
  4157  00231A  2EE8               	decfsz	wreg,f,c
  4158  00231C  D7FE               	bra	u3577
  4159  00231E  D000               	nop2	
  4160  002320                     
  4161                           ;clcd.c: 28:     clcd_write(0x01, 0);
  4162  002320  0E00               	movlw	0
  4163  002322  6E01               	movwf	clcd_write@control_bit^0,c
  4164  002324  0E01               	movlw	1
  4165  002326  EC51  F014         	call	_clcd_write
  4166  00232A                     
  4167                           ;clcd.c: 29:     _delay((unsigned long)((500)*(20000000/4000000.0)));
  4168  00232A  0E04               	movlw	4
  4169  00232C  6E03               	movwf	??_init_clcd^0,c
  4170  00232E  0E3E               	movlw	62
  4171  002330                     u3587:
  4172  002330  2EE8               	decfsz	wreg,f,c
  4173  002332  D7FE               	bra	u3587
  4174  002334  2E03               	decfsz	??_init_clcd^0,f,c
  4175  002336  D7FC               	bra	u3587
  4176  002338                     
  4177                           ;clcd.c: 30:     clcd_write(0x0C, 0);
  4178  002338  0E00               	movlw	0
  4179  00233A  6E01               	movwf	clcd_write@control_bit^0,c
  4180  00233C  0E0C               	movlw	12
  4181  00233E  EC51  F014         	call	_clcd_write
  4182  002342                     
  4183                           ;clcd.c: 31:     _delay((unsigned long)((100)*(20000000/4000000.0)));
  4184  002342  0EA6               	movlw	166
  4185  002344                     u3597:
  4186  002344  2EE8               	decfsz	wreg,f,c
  4187  002346  D7FE               	bra	u3597
  4188  002348  D000               	nop2	
  4189  00234A  0012               	return		;funcret
  4190  00234C                     __end_of_init_clcd:
  4191                           	callstack 0
  4192                           
  4193 ;; *************** function _init_adc *****************
  4194 ;; Defined at:
  4195 ;;		line 2 in file "adc.c"
  4196 ;; Parameters:    Size  Location     Type
  4197 ;;		None
  4198 ;; Auto vars:     Size  Location     Type
  4199 ;;		None
  4200 ;; Return value:  Size  Location     Type
  4201 ;;                  1    wreg      void 
  4202 ;; Registers used:
  4203 ;;		wreg, status,2
  4204 ;; Tracked objects:
  4205 ;;		On entry : 0/0
  4206 ;;		On exit  : 0/0
  4207 ;;		Unchanged: 0/0
  4208 ;; Data sizes:     COMRAM   BANK0   BANK1   BANK2   BANK3   BANK4   BANK5
  4209 ;;      Params:         0       0       0       0       0       0       0
  4210 ;;      Locals:         0       0       0       0       0       0       0
  4211 ;;      Temps:          0       0       0       0       0       0       0
  4212 ;;      Totals:         0       0       0       0       0       0       0
  4213 ;;Total ram usage:        0 bytes
  4214 ;; Hardware stack levels used: 1
  4215 ;; This function calls:
  4216 ;;		Nothing
  4217 ;; This function is called by:
  4218 ;;		_init_config
  4219 ;; This function uses a non-reentrant model
  4220 ;;
  4221                           
  4222                           	psect	text17
  4223  002A6C                     __ptext17:
  4224                           	callstack 0
  4225  002A6C                     _init_adc:
  4226                           	callstack 29
  4227  002A6C                     
  4228                           ;adc.c: 4:     ADON = 1;
  4229  002A6C  80C2               	bsf	4034,0,c	;volatile
  4230  002A6E                     
  4231                           ;adc.c: 6:     ADCON1 = 0x0A;
  4232  002A6E  0E0A               	movlw	10
  4233  002A70  6EC1               	movwf	193,c	;volatile
  4234                           
  4235                           ;adc.c: 8:     ADCON2 = 0x94;
  4236  002A72  0E94               	movlw	148
  4237  002A74  6EC0               	movwf	192,c	;volatile
  4238  002A76  0012               	return		;funcret
  4239  002A78                     __end_of_init_adc:
  4240                           	callstack 0
  4241                           
  4242 ;; *************** function _get_time *****************
  4243 ;; Defined at:
  4244 ;;		line 203 in file "black_box.c"
  4245 ;; Parameters:    Size  Location     Type
  4246 ;;		None
  4247 ;; Auto vars:     Size  Location     Type
  4248 ;;		None
  4249 ;; Return value:  Size  Location     Type
  4250 ;;                  1    wreg      void 
  4251 ;; Registers used:
  4252 ;;		wreg, status,2, status,0, prodl, prodh
  4253 ;; Tracked objects:
  4254 ;;		On entry : 0/0
  4255 ;;		On exit  : 0/0
  4256 ;;		Unchanged: 0/0
  4257 ;; Data sizes:     COMRAM   BANK0   BANK1   BANK2   BANK3   BANK4   BANK5
  4258 ;;      Params:         0       0       0       0       0       0       0
  4259 ;;      Locals:         0       0       0       0       0       0       0
  4260 ;;      Temps:          0       0       0       0       0       0       0
  4261 ;;      Totals:         0       0       0       0       0       0       0
  4262 ;;Total ram usage:        0 bytes
  4263 ;; Hardware stack levels used: 1
  4264 ;; This function calls:
  4265 ;;		Nothing
  4266 ;; This function is called by:
  4267 ;;		_main
  4268 ;; This function uses a non-reentrant model
  4269 ;;
  4270                           
  4271                           	psect	text18
  4272  002988                     __ptext18:
  4273                           	callstack 0
  4274  002988                     _get_time:
  4275                           	callstack 30
  4276  002988                     
  4277                           ;black_box.c: 205:     h = ((time[0] - '0')*10) + time[1] - '0';
  4278  002988  0100               	movlb	0	; () banked
  4279  00298A  51E9               	movf	_time& (0+255),w,b
  4280  00298C  0D0A               	mullw	10
  4281  00298E  50F3               	movf	243,w,c
  4282  002990  25EA               	addwf	(_time+1)& (0+255),w,b
  4283  002992  0FF0               	addlw	240
  4284  002994  6E5D               	movwf	_h^0,c
  4285                           
  4286                           ;black_box.c: 206:     min = ((time[3] - '0')*10) + time[4] - '0';
  4287  002996  51EC               	movf	(_time+3)& (0+255),w,b
  4288  002998  0D0A               	mullw	10
  4289  00299A  50F3               	movf	243,w,c
  4290  00299C  25ED               	addwf	(_time+4)& (0+255),w,b
  4291  00299E  0FF0               	addlw	240
  4292  0029A0  6E5C               	movwf	_min^0,c
  4293                           
  4294                           ;black_box.c: 207:     sec = ((time[6] - '0')*10) + time[7] - '0';
  4295  0029A2  51EF               	movf	(_time+6)& (0+255),w,b
  4296  0029A4  0D0A               	mullw	10
  4297  0029A6  50F3               	movf	243,w,c
  4298  0029A8  25F0               	addwf	(_time+7)& (0+255),w,b
  4299  0029AA  0FF0               	addlw	240
  4300  0029AC  6E5E               	movwf	_sec^0,c
  4301  0029AE                     
  4302                           ; BSR set to: 0
  4303  0029AE  0012               	return		;funcret
  4304  0029B0                     __end_of_get_time:
  4305                           	callstack 0
  4306                           
  4307 ;; *************** function _download_log *****************
  4308 ;; Defined at:
  4309 ;;		line 80 in file "uart.c"
  4310 ;; Parameters:    Size  Location     Type
  4311 ;;		None
  4312 ;; Auto vars:     Size  Location     Type
  4313 ;;  j               1   25[COMRAM] unsigned char 
  4314 ;;  ch             17    7[COMRAM] unsigned char [17]
  4315 ;;  i               1   24[COMRAM] unsigned char 
  4316 ;; Return value:  Size  Location     Type
  4317 ;;                  1    wreg      void 
  4318 ;; Registers used:
  4319 ;;		wreg, fsr0l, fsr0h, fsr2l, fsr2h, status,2, status,0, tblptrl, tblptrh, tblptru, prodl, prodh, cstack
  4320 ;; Tracked objects:
  4321 ;;		On entry : 0/0
  4322 ;;		On exit  : 0/0
  4323 ;;		Unchanged: 0/0
  4324 ;; Data sizes:     COMRAM   BANK0   BANK1   BANK2   BANK3   BANK4   BANK5
  4325 ;;      Params:         0       0       0       0       0       0       0
  4326 ;;      Locals:        19       0       0       0       0       0       0
  4327 ;;      Temps:          2       0       0       0       0       0       0
  4328 ;;      Totals:        21       0       0       0       0       0       0
  4329 ;;Total ram usage:       21 bytes
  4330 ;; Hardware stack levels used: 1
  4331 ;; Hardware stack levels required when called: 4
  4332 ;; This function calls:
  4333 ;;		_clcd_print
  4334 ;;		_clcd_write
  4335 ;;		_puts
  4336 ;;		_read_external_eeprom
  4337 ;; This function is called by:
  4338 ;;		_main
  4339 ;; This function uses a non-reentrant model
  4340 ;;
  4341                           
  4342                           	psect	text19
  4343  00234C                     __ptext19:
  4344                           	callstack 0
  4345  00234C                     _download_log:
  4346                           	callstack 26
  4347  00234C                     
  4348                           ;uart.c: 82:     char i=0;
  4349  00234C  0E00               	movlw	0
  4350  00234E  6E19               	movwf	download_log@i^0,c
  4351                           
  4352                           ;uart.c: 83:     while(event_flag > i)
  4353  002350  EFCF  F011         	goto	l3440
  4354  002354                     l3422:
  4355                           
  4356                           ;uart.c: 84:     {;uart.c: 85:         char ch[17]={};
  4357  002354  EE20  F008         	lfsr	2,download_log@ch
  4358  002358  0E10               	movlw	16
  4359  00235A                     u2501:
  4360  00235A  6ADE               	clrf	postinc2,c
  4361  00235C  06E8               	decf	wreg,f,c
  4362  00235E  E2FD               	bc	u2501
  4363  002360                     
  4364                           ;uart.c: 86:         for(char j=0 ; j<16 ; j++)
  4365  002360  0E00               	movlw	0
  4366  002362  6E1A               	movwf	download_log@j^0,c
  4367  002364                     l3430:
  4368                           
  4369                           ;uart.c: 87:         {;uart.c: 88:             ch[j] = read_external_eeprom((i*16)+j);
  4370  002364  0E08               	movlw	low download_log@ch
  4371  002366  241A               	addwf	download_log@j^0,w,c
  4372  002368  6ED9               	movwf	fsr2l,c
  4373  00236A  6ADA               	clrf	fsr2h,c
  4374  00236C  0E00               	movlw	high download_log@ch
  4375  00236E  22DA               	addwfc	fsr2h,f,c
  4376  002370  5019               	movf	download_log@i^0,w,c
  4377  002372  0D10               	mullw	16
  4378  002374  50F3               	movf	243,w,c
  4379  002376  241A               	addwf	download_log@j^0,w,c
  4380  002378  EC9A  F014         	call	_read_external_eeprom
  4381  00237C  6EDF               	movwf	indf2,c
  4382  00237E                     
  4383                           ;uart.c: 89:         }
  4384  00237E  2A1A               	incf	download_log@j^0,f,c
  4385  002380  0E0F               	movlw	15
  4386  002382  641A               	cpfsgt	download_log@j^0,c
  4387  002384  EFC6  F011         	goto	u2511
  4388  002388  EFC8  F011         	goto	u2510
  4389  00238C                     u2511:
  4390  00238C  EFB2  F011         	goto	l3430
  4391  002390                     u2510:
  4392  002390                     
  4393                           ;uart.c: 90:         i++;
  4394  002390  2A19               	incf	download_log@i^0,f,c
  4395  002392                     
  4396                           ;uart.c: 91:         puts(ch);
  4397  002392  0E08               	movlw	low download_log@ch
  4398  002394  6E02               	movwf	puts@s^0,c
  4399  002396  0E00               	movlw	high download_log@ch
  4400  002398  6E03               	movwf	(puts@s+1)^0,c
  4401  00239A  EC33  F014         	call	_puts	;wreg free
  4402  00239E                     l3440:
  4403                           
  4404                           ;uart.c: 83:     while(event_flag > i)
  4405  00239E  505F               	movf	_event_flag^0,w,c
  4406  0023A0  5C19               	subwf	download_log@i^0,w,c
  4407  0023A2  A0D8               	btfss	status,0,c
  4408  0023A4  EFD6  F011         	goto	u2521
  4409  0023A8  EFD8  F011         	goto	u2520
  4410  0023AC                     u2521:
  4411  0023AC  EFAA  F011         	goto	l3422
  4412  0023B0                     u2520:
  4413  0023B0                     
  4414                           ;uart.c: 93:     clcd_print("Download logs",(0x80 + (2)));
  4415  0023B0  0E60               	movlw	low STR_13
  4416  0023B2  6E03               	movwf	clcd_print@data^0,c
  4417  0023B4  0E06               	movlw	high STR_13
  4418  0023B6  6E04               	movwf	(clcd_print@data+1)^0,c
  4419  0023B8  0E82               	movlw	130
  4420  0023BA  6E05               	movwf	clcd_print@addr^0,c
  4421  0023BC  EC64  F013         	call	_clcd_print	;wreg free
  4422  0023C0                     
  4423                           ;uart.c: 94:     _delay((unsigned long)((2000)*(20000000/4000.0)));
  4424  0023C0  0E33               	movlw	51
  4425  0023C2  6E07               	movwf	(??_download_log+1)^0,c
  4426  0023C4  0EBB               	movlw	187
  4427  0023C6  6E06               	movwf	??_download_log^0,c
  4428  0023C8  0EE0               	movlw	224
  4429  0023CA                     u3607:
  4430  0023CA  2EE8               	decfsz	wreg,f,c
  4431  0023CC  D7FE               	bra	u3607
  4432  0023CE  2E06               	decfsz	??_download_log^0,f,c
  4433  0023D0  D7FC               	bra	u3607
  4434  0023D2  2E07               	decfsz	(??_download_log+1)^0,f,c
  4435  0023D4  D7FA               	bra	u3607
  4436  0023D6                     
  4437                           ;uart.c: 95:     clcd_write(0x01, 0);
  4438  0023D6  0E00               	movlw	0
  4439  0023D8  6E01               	movwf	clcd_write@control_bit^0,c
  4440  0023DA  0E01               	movlw	1
  4441  0023DC  EC51  F014         	call	_clcd_write
  4442  0023E0                     
  4443                           ;uart.c: 96:     _delay((unsigned long)((500)*(20000000/4000000.0)));
  4444  0023E0  0E04               	movlw	4
  4445  0023E2  6E06               	movwf	??_download_log^0,c
  4446  0023E4  0E3E               	movlw	62
  4447  0023E6                     u3617:
  4448  0023E6  2EE8               	decfsz	wreg,f,c
  4449  0023E8  D7FE               	bra	u3617
  4450  0023EA  2E06               	decfsz	??_download_log^0,f,c
  4451  0023EC  D7FC               	bra	u3617
  4452  0023EE  0012               	return		;funcret
  4453  0023F0                     __end_of_download_log:
  4454                           	callstack 0
  4455                           
  4456 ;; *************** function _read_external_eeprom *****************
  4457 ;; Defined at:
  4458 ;;		line 13 in file "ext_eeprom.c"
  4459 ;; Parameters:    Size  Location     Type
  4460 ;;  address         1    wreg     unsigned char 
  4461 ;; Auto vars:     Size  Location     Type
  4462 ;;  address         1    1[COMRAM] unsigned char 
  4463 ;;  data            1    2[COMRAM] unsigned char 
  4464 ;; Return value:  Size  Location     Type
  4465 ;;                  1    wreg      unsigned char 
  4466 ;; Registers used:
  4467 ;;		wreg, status,2, cstack
  4468 ;; Tracked objects:
  4469 ;;		On entry : 0/0
  4470 ;;		On exit  : 0/0
  4471 ;;		Unchanged: 0/0
  4472 ;; Data sizes:     COMRAM   BANK0   BANK1   BANK2   BANK3   BANK4   BANK5
  4473 ;;      Params:         0       0       0       0       0       0       0
  4474 ;;      Locals:         2       0       0       0       0       0       0
  4475 ;;      Temps:          0       0       0       0       0       0       0
  4476 ;;      Totals:         2       0       0       0       0       0       0
  4477 ;;Total ram usage:        2 bytes
  4478 ;; Hardware stack levels used: 1
  4479 ;; Hardware stack levels required when called: 3
  4480 ;; This function calls:
  4481 ;;		_i2c_read
  4482 ;;		_i2c_rep_start
  4483 ;;		_i2c_start
  4484 ;;		_i2c_stop
  4485 ;;		_i2c_write
  4486 ;; This function is called by:
  4487 ;;		_view_log
  4488 ;;		_download_log
  4489 ;; This function uses a non-reentrant model
  4490 ;;
  4491                           
  4492                           	psect	text20
  4493  002934                     __ptext20:
  4494                           	callstack 0
  4495  002934                     _read_external_eeprom:
  4496                           	callstack 26
  4497                           
  4498                           ;incstack = 0
  4499                           ;read_external_eeprom@address stored from wreg
  4500  002934  6E02               	movwf	read_external_eeprom@address^0,c
  4501  002936                     
  4502                           ;ext_eeprom.c: 13: unsigned char read_external_eeprom(unsigned char address);ext_eeprom.
      +                          c: 14: {;ext_eeprom.c: 15:  unsigned char data;;ext_eeprom.c: 17:  i2c_start();
  4503  002936  EC4C  F015         	call	_i2c_start	;wreg free
  4504  00293A                     
  4505                           ;ext_eeprom.c: 18:  i2c_write(0xA0);
  4506  00293A  0EA0               	movlw	160
  4507  00293C  EC3C  F015         	call	_i2c_write
  4508  002940                     
  4509                           ;ext_eeprom.c: 19:  i2c_write(address);
  4510  002940  5002               	movf	read_external_eeprom@address^0,w,c
  4511  002942  EC3C  F015         	call	_i2c_write
  4512  002946                     
  4513                           ;ext_eeprom.c: 20:  i2c_rep_start();
  4514  002946  EC50  F015         	call	_i2c_rep_start	;wreg free
  4515  00294A                     
  4516                           ;ext_eeprom.c: 21:  i2c_write(0xA1);
  4517  00294A  0EA1               	movlw	161
  4518  00294C  EC3C  F015         	call	_i2c_write
  4519                           
  4520                           ;ext_eeprom.c: 22:  data = i2c_read();
  4521  002950  EC42  F015         	call	_i2c_read	;wreg free
  4522  002954  6E03               	movwf	read_external_eeprom@data^0,c
  4523  002956                     
  4524                           ;ext_eeprom.c: 23:  i2c_stop();
  4525  002956  EC48  F015         	call	_i2c_stop	;wreg free
  4526                           
  4527                           ;ext_eeprom.c: 25:  return data;
  4528  00295A  5003               	movf	read_external_eeprom@data^0,w,c
  4529  00295C  0012               	return		;funcret
  4530  00295E                     __end_of_read_external_eeprom:
  4531                           	callstack 0
  4532                           
  4533 ;; *************** function _puts *****************
  4534 ;; Defined at:
  4535 ;;		line 68 in file "uart.c"
  4536 ;; Parameters:    Size  Location     Type
  4537 ;;  s               2    1[COMRAM] PTR const unsigned char 
  4538 ;;		 -> download_log@ch(17), 
  4539 ;; Auto vars:     Size  Location     Type
  4540 ;;		None
  4541 ;; Return value:  Size  Location     Type
  4542 ;;                  2    1[COMRAM] int 
  4543 ;; Registers used:
  4544 ;;		wreg, fsr2l, fsr2h, status,2, status,0, cstack
  4545 ;; Tracked objects:
  4546 ;;		On entry : 0/0
  4547 ;;		On exit  : 0/0
  4548 ;;		Unchanged: 0/0
  4549 ;; Data sizes:     COMRAM   BANK0   BANK1   BANK2   BANK3   BANK4   BANK5
  4550 ;;      Params:         2       0       0       0       0       0       0
  4551 ;;      Locals:         0       0       0       0       0       0       0
  4552 ;;      Temps:          0       0       0       0       0       0       0
  4553 ;;      Totals:         2       0       0       0       0       0       0
  4554 ;;Total ram usage:        2 bytes
  4555 ;; Hardware stack levels used: 1
  4556 ;; Hardware stack levels required when called: 1
  4557 ;; This function calls:
  4558 ;;		_putch
  4559 ;; This function is called by:
  4560 ;;		_download_log
  4561 ;; This function uses a non-reentrant model
  4562 ;;
  4563                           
  4564                           	psect	text21
  4565  002866                     __ptext21:
  4566                           	callstack 0
  4567  002866                     _puts:
  4568                           	callstack 28
  4569  002866                     
  4570                           ;uart.c: 68: int puts(const char *s);uart.c: 69: {;uart.c: 70:  while(*s)
  4571  002866  EF3E  F014         	goto	l3038
  4572  00286A                     l3034:
  4573                           
  4574                           ;uart.c: 71:  {;uart.c: 72:   putch(*s++);
  4575  00286A  C002  FFD9         	movff	puts@s,fsr2l
  4576  00286E  C003  FFDA         	movff	puts@s+1,fsr2h
  4577  002872  50DF               	movf	indf2,w,c
  4578  002874  EC0B  F015         	call	_putch
  4579  002878  4A02               	infsnz	puts@s^0,f,c
  4580  00287A  2A03               	incf	(puts@s+1)^0,f,c
  4581  00287C                     l3038:
  4582                           
  4583                           ;uart.c: 70:  while(*s)
  4584  00287C  C002  FFD9         	movff	puts@s,fsr2l
  4585  002880  C003  FFDA         	movff	puts@s+1,fsr2h
  4586  002884  50DF               	movf	indf2,w,c
  4587  002886  A4D8               	btfss	status,2,c
  4588  002888  EF48  F014         	goto	u2031
  4589  00288C  EF4A  F014         	goto	u2030
  4590  002890                     u2031:
  4591  002890  EF35  F014         	goto	l3034
  4592  002894                     u2030:
  4593  002894                     
  4594                           ;uart.c: 74:     putch('\n');
  4595  002894  0E0A               	movlw	10
  4596  002896  EC0B  F015         	call	_putch
  4597                           
  4598                           ;uart.c: 75:     putch('\r');
  4599  00289A  0E0D               	movlw	13
  4600  00289C  EC0B  F015         	call	_putch
  4601  0028A0  0012               	return		;funcret
  4602  0028A2                     __end_of_puts:
  4603                           	callstack 0
  4604                           
  4605 ;; *************** function _putch *****************
  4606 ;; Defined at:
  4607 ;;		line 57 in file "uart.c"
  4608 ;; Parameters:    Size  Location     Type
  4609 ;;  byte            1    wreg     unsigned char 
  4610 ;; Auto vars:     Size  Location     Type
  4611 ;;  byte            1    0[COMRAM] unsigned char 
  4612 ;; Return value:  Size  Location     Type
  4613 ;;                  1    wreg      void 
  4614 ;; Registers used:
  4615 ;;		wreg
  4616 ;; Tracked objects:
  4617 ;;		On entry : 0/0
  4618 ;;		On exit  : 0/0
  4619 ;;		Unchanged: 0/0
  4620 ;; Data sizes:     COMRAM   BANK0   BANK1   BANK2   BANK3   BANK4   BANK5
  4621 ;;      Params:         0       0       0       0       0       0       0
  4622 ;;      Locals:         1       0       0       0       0       0       0
  4623 ;;      Temps:          0       0       0       0       0       0       0
  4624 ;;      Totals:         1       0       0       0       0       0       0
  4625 ;;Total ram usage:        1 bytes
  4626 ;; Hardware stack levels used: 1
  4627 ;; This function calls:
  4628 ;;		Nothing
  4629 ;; This function is called by:
  4630 ;;		_puts
  4631 ;; This function uses a non-reentrant model
  4632 ;;
  4633                           
  4634                           	psect	text22
  4635  002A16                     __ptext22:
  4636                           	callstack 0
  4637  002A16                     _putch:
  4638                           	callstack 28
  4639                           
  4640                           ;incstack = 0
  4641                           ;putch@byte stored from wreg
  4642  002A16  6E01               	movwf	putch@byte^0,c
  4643  002A18                     l570:
  4644                           
  4645                           ;uart.c: 61:  while(!TXIF)
  4646  002A18  A89E               	btfss	3998,4,c	;volatile
  4647  002A1A  EF11  F015         	goto	u1871
  4648  002A1E  EF13  F015         	goto	u1870
  4649  002A22                     u1871:
  4650  002A22  EF0C  F015         	goto	l570
  4651  002A26                     u1870:
  4652  002A26                     
  4653                           ;uart.c: 65:  TXREG = byte;
  4654  002A26  C001  FFAD         	movff	putch@byte,4013	;volatile
  4655  002A2A  0012               	return		;funcret
  4656  002A2C                     __end_of_putch:
  4657                           	callstack 0
  4658                           
  4659 ;; *************** function _display *****************
  4660 ;; Defined at:
  4661 ;;		line 23 in file "black_box.c"
  4662 ;; Parameters:    Size  Location     Type
  4663 ;;  event           2   16[COMRAM] PTR unsigned char 
  4664 ;;		 -> main@ev(24), 
  4665 ;;  speed           1   18[COMRAM] unsigned char 
  4666 ;; Auto vars:     Size  Location     Type
  4667 ;;		None
  4668 ;; Return value:  Size  Location     Type
  4669 ;;                  1    wreg      void 
  4670 ;; Registers used:
  4671 ;;		wreg, fsr0l, fsr0h, fsr2l, fsr2h, status,2, status,0, tblptrl, tblptrh, tblptru, cstack
  4672 ;; Tracked objects:
  4673 ;;		On entry : 0/0
  4674 ;;		On exit  : 0/0
  4675 ;;		Unchanged: 0/0
  4676 ;; Data sizes:     COMRAM   BANK0   BANK1   BANK2   BANK3   BANK4   BANK5
  4677 ;;      Params:         3       0       0       0       0       0       0
  4678 ;;      Locals:         0       0       0       0       0       0       0
  4679 ;;      Temps:          0       0       0       0       0       0       0
  4680 ;;      Totals:         3       0       0       0       0       0       0
  4681 ;;Total ram usage:        3 bytes
  4682 ;; Hardware stack levels used: 1
  4683 ;; Hardware stack levels required when called: 5
  4684 ;; This function calls:
  4685 ;;		___awdiv
  4686 ;;		___awmod
  4687 ;;		_clcd_print
  4688 ;;		_clcd_print_ch
  4689 ;;		_read_rtc
  4690 ;; This function is called by:
  4691 ;;		_main
  4692 ;; This function uses a non-reentrant model
  4693 ;;
  4694                           
  4695                           	psect	text23
  4696  002734                     __ptext23:
  4697                           	callstack 0
  4698  002734                     _display:
  4699                           	callstack 25
  4700  002734                     
  4701                           ;black_box.c: 23: void display(unsigned char *event,unsigned char speed);black_box.c: 24
      +                          : {;black_box.c: 25:     clcd_print("  Time    EV  SP",(0x80 + (0)));
  4702  002734  0E12               	movlw	low STR_1
  4703  002736  6E03               	movwf	clcd_print@data^0,c
  4704  002738  0E06               	movlw	high STR_1
  4705  00273A  6E04               	movwf	(clcd_print@data+1)^0,c
  4706  00273C  0E80               	movlw	128
  4707  00273E  6E05               	movwf	clcd_print@addr^0,c
  4708  002740  EC64  F013         	call	_clcd_print	;wreg free
  4709  002744                     
  4710                           ;black_box.c: 26:     read_rtc(time);
  4711  002744  0EE9               	movlw	low _time
  4712  002746  6E06               	movwf	read_rtc@time^0,c
  4713  002748  0E00               	movlw	high _time
  4714  00274A  6E07               	movwf	(read_rtc@time+1)^0,c
  4715  00274C  EC5D  F00F         	call	_read_rtc	;wreg free
  4716  002750                     
  4717                           ;black_box.c: 27:     clcd_print(event,(0xC0 + (10)));
  4718  002750  C011  F003         	movff	display@event,clcd_print@data
  4719  002754  C012  F004         	movff	display@event+1,clcd_print@data+1
  4720  002758  0ECA               	movlw	202
  4721  00275A  6E05               	movwf	clcd_print@addr^0,c
  4722  00275C  EC64  F013         	call	_clcd_print	;wreg free
  4723  002760                     
  4724                           ;black_box.c: 28:     clcd_print_ch((speed/10)+'0',(0xC0 + (14)));
  4725  002760  0ECE               	movlw	206
  4726  002762  6E0F               	movwf	clcd_print_ch@addr^0,c
  4727  002764  C013  F001         	movff	display@speed,___awdiv@dividend
  4728  002768  6A02               	clrf	(___awdiv@dividend+1)^0,c
  4729  00276A  0E00               	movlw	0
  4730  00276C  6E04               	movwf	(___awdiv@divisor+1)^0,c
  4731  00276E  0E0A               	movlw	10
  4732  002770  6E03               	movwf	___awdiv@divisor^0,c
  4733  002772  EC98  F010         	call	___awdiv	;wreg free
  4734  002776  5001               	movf	?___awdiv^0,w,c
  4735  002778  0F30               	addlw	48
  4736  00277A  ECF4  F014         	call	_clcd_print_ch
  4737  00277E                     
  4738                           ;black_box.c: 29:     clcd_print_ch((speed%10)+'0',(0xC0 + (15)));
  4739  00277E  0ECF               	movlw	207
  4740  002780  6E0F               	movwf	clcd_print_ch@addr^0,c
  4741  002782  C013  F009         	movff	display@speed,___awmod@dividend
  4742  002786  6A0A               	clrf	(___awmod@dividend+1)^0,c
  4743  002788  0E00               	movlw	0
  4744  00278A  6E0C               	movwf	(___awmod@divisor+1)^0,c
  4745  00278C  0E0A               	movlw	10
  4746  00278E  6E0B               	movwf	___awmod@divisor^0,c
  4747  002790  ECFA  F010         	call	___awmod	;wreg free
  4748  002794  5009               	movf	?___awmod^0,w,c
  4749  002796  0F30               	addlw	48
  4750  002798  ECF4  F014         	call	_clcd_print_ch
  4751  00279C  0012               	return		;funcret
  4752  00279E                     __end_of_display:
  4753                           	callstack 0
  4754                           
  4755 ;; *************** function _read_rtc *****************
  4756 ;; Defined at:
  4757 ;;		line 9 in file "black_box.c"
  4758 ;; Parameters:    Size  Location     Type
  4759 ;;  time            2    5[COMRAM] PTR unsigned char 
  4760 ;;		 -> time(9), 
  4761 ;; Auto vars:     Size  Location     Type
  4762 ;;		None
  4763 ;; Return value:  Size  Location     Type
  4764 ;;                  1    wreg      void 
  4765 ;; Registers used:
  4766 ;;		wreg, fsr0l, fsr0h, fsr2l, fsr2h, status,2, status,0, tblptrl, tblptrh, tblptru, cstack
  4767 ;; Tracked objects:
  4768 ;;		On entry : 0/0
  4769 ;;		On exit  : 0/0
  4770 ;;		Unchanged: 0/0
  4771 ;; Data sizes:     COMRAM   BANK0   BANK1   BANK2   BANK3   BANK4   BANK5
  4772 ;;      Params:         2       0       0       0       0       0       0
  4773 ;;      Locals:         0       0       0       0       0       0       0
  4774 ;;      Temps:          1       0       0       0       0       0       0
  4775 ;;      Totals:         3       0       0       0       0       0       0
  4776 ;;Total ram usage:        3 bytes
  4777 ;; Hardware stack levels used: 1
  4778 ;; Hardware stack levels required when called: 4
  4779 ;; This function calls:
  4780 ;;		_clcd_print
  4781 ;;		_read_ds1307
  4782 ;; This function is called by:
  4783 ;;		_display
  4784 ;; This function uses a non-reentrant model
  4785 ;;
  4786                           
  4787                           	psect	text24
  4788  001EBA                     __ptext24:
  4789                           	callstack 0
  4790  001EBA                     _read_rtc:
  4791                           	callstack 25
  4792  001EBA                     
  4793                           ;black_box.c: 9: void read_rtc(unsigned char *time);black_box.c: 10: {;black_box.c: 11: 
      +                              time[0] = ((read_ds1307(0x02)>> 4) & 0x03) + '0';
  4794  001EBA  0E02               	movlw	2
  4795  001EBC  ECAF  F014         	call	_read_ds1307
  4796  001EC0  6E08               	movwf	??_read_rtc^0,c
  4797  001EC2  3808               	swapf	??_read_rtc^0,w,c
  4798  001EC4  0B0F               	andlw	15
  4799  001EC6  0B03               	andlw	3
  4800  001EC8  0F30               	addlw	48
  4801  001ECA  C006  FFD9         	movff	read_rtc@time,fsr2l
  4802  001ECE  C007  FFDA         	movff	read_rtc@time+1,fsr2h
  4803  001ED2  6EDF               	movwf	indf2,c
  4804                           
  4805                           ;black_box.c: 12:     time[1] = (read_ds1307(0x02) & 0x0F) + '0';
  4806  001ED4  EE20 F001          	lfsr	2,1
  4807  001ED8  5006               	movf	read_rtc@time^0,w,c
  4808  001EDA  26D9               	addwf	fsr2l,f,c
  4809  001EDC  5007               	movf	(read_rtc@time+1)^0,w,c
  4810  001EDE  22DA               	addwfc	fsr2h,f,c
  4811  001EE0  0E02               	movlw	2
  4812  001EE2  ECAF  F014         	call	_read_ds1307
  4813  001EE6  0B0F               	andlw	15
  4814  001EE8  0F30               	addlw	48
  4815  001EEA  6EDF               	movwf	indf2,c
  4816  001EEC                     
  4817                           ;black_box.c: 13:     time[2] = ':';
  4818  001EEC  EE20 F002          	lfsr	2,2
  4819  001EF0  5006               	movf	read_rtc@time^0,w,c
  4820  001EF2  26D9               	addwf	fsr2l,f,c
  4821  001EF4  5007               	movf	(read_rtc@time+1)^0,w,c
  4822  001EF6  22DA               	addwfc	fsr2h,f,c
  4823  001EF8  0E3A               	movlw	58
  4824  001EFA  6EDF               	movwf	indf2,c
  4825  001EFC                     
  4826                           ;black_box.c: 14:     time[3] = ((read_ds1307(0x01) >> 4) & 0x07) + '0';
  4827  001EFC  EE20 F003          	lfsr	2,3
  4828  001F00  5006               	movf	read_rtc@time^0,w,c
  4829  001F02  26D9               	addwf	fsr2l,f,c
  4830  001F04  5007               	movf	(read_rtc@time+1)^0,w,c
  4831  001F06  22DA               	addwfc	fsr2h,f,c
  4832  001F08  0E01               	movlw	1
  4833  001F0A  ECAF  F014         	call	_read_ds1307
  4834  001F0E  6E08               	movwf	??_read_rtc^0,c
  4835  001F10  3808               	swapf	??_read_rtc^0,w,c
  4836  001F12  0B0F               	andlw	15
  4837  001F14  0B07               	andlw	7
  4838  001F16  0F30               	addlw	48
  4839  001F18  6EDF               	movwf	indf2,c
  4840  001F1A                     
  4841                           ;black_box.c: 15:     time[4] = (read_ds1307(0x01) & 0x0F) + '0';
  4842  001F1A  EE20 F004          	lfsr	2,4
  4843  001F1E  5006               	movf	read_rtc@time^0,w,c
  4844  001F20  26D9               	addwf	fsr2l,f,c
  4845  001F22  5007               	movf	(read_rtc@time+1)^0,w,c
  4846  001F24  22DA               	addwfc	fsr2h,f,c
  4847  001F26  0E01               	movlw	1
  4848  001F28  ECAF  F014         	call	_read_ds1307
  4849  001F2C  0B0F               	andlw	15
  4850  001F2E  0F30               	addlw	48
  4851  001F30  6EDF               	movwf	indf2,c
  4852  001F32                     
  4853                           ;black_box.c: 16:     time[5] = ':';
  4854  001F32  EE20 F005          	lfsr	2,5
  4855  001F36  5006               	movf	read_rtc@time^0,w,c
  4856  001F38  26D9               	addwf	fsr2l,f,c
  4857  001F3A  5007               	movf	(read_rtc@time+1)^0,w,c
  4858  001F3C  22DA               	addwfc	fsr2h,f,c
  4859  001F3E  0E3A               	movlw	58
  4860  001F40  6EDF               	movwf	indf2,c
  4861                           
  4862                           ;black_box.c: 17:     time[6] = ((read_ds1307(0x00)>> 4)& 0x07) + '0';
  4863  001F42  EE20 F006          	lfsr	2,6
  4864  001F46  5006               	movf	read_rtc@time^0,w,c
  4865  001F48  26D9               	addwf	fsr2l,f,c
  4866  001F4A  5007               	movf	(read_rtc@time+1)^0,w,c
  4867  001F4C  22DA               	addwfc	fsr2h,f,c
  4868  001F4E  0E00               	movlw	0
  4869  001F50  ECAF  F014         	call	_read_ds1307
  4870  001F54  6E08               	movwf	??_read_rtc^0,c
  4871  001F56  3808               	swapf	??_read_rtc^0,w,c
  4872  001F58  0B0F               	andlw	15
  4873  001F5A  0B07               	andlw	7
  4874  001F5C  0F30               	addlw	48
  4875  001F5E  6EDF               	movwf	indf2,c
  4876                           
  4877                           ;black_box.c: 18:     time[7] = (read_ds1307(0x00)&0x0F) + '0';
  4878  001F60  EE20 F007          	lfsr	2,7
  4879  001F64  5006               	movf	read_rtc@time^0,w,c
  4880  001F66  26D9               	addwf	fsr2l,f,c
  4881  001F68  5007               	movf	(read_rtc@time+1)^0,w,c
  4882  001F6A  22DA               	addwfc	fsr2h,f,c
  4883  001F6C  0E00               	movlw	0
  4884  001F6E  ECAF  F014         	call	_read_ds1307
  4885  001F72  0B0F               	andlw	15
  4886  001F74  0F30               	addlw	48
  4887  001F76  6EDF               	movwf	indf2,c
  4888  001F78                     
  4889                           ;black_box.c: 19:     time[8] = '\0';
  4890  001F78  EE20 F008          	lfsr	2,8
  4891  001F7C  5006               	movf	read_rtc@time^0,w,c
  4892  001F7E  26D9               	addwf	fsr2l,f,c
  4893  001F80  5007               	movf	(read_rtc@time+1)^0,w,c
  4894  001F82  22DA               	addwfc	fsr2h,f,c
  4895  001F84  0E00               	movlw	0
  4896  001F86  6EDF               	movwf	indf2,c
  4897  001F88                     
  4898                           ;black_box.c: 20:     clcd_print(time,(0xC0 + (0)));
  4899  001F88  C006  F003         	movff	read_rtc@time,clcd_print@data
  4900  001F8C  C007  F004         	movff	read_rtc@time+1,clcd_print@data+1
  4901  001F90  0EC0               	movlw	192
  4902  001F92  6E05               	movwf	clcd_print@addr^0,c
  4903  001F94  EC64  F013         	call	_clcd_print	;wreg free
  4904  001F98  0012               	return		;funcret
  4905  001F9A                     __end_of_read_rtc:
  4906                           	callstack 0
  4907                           
  4908 ;; *************** function _read_ds1307 *****************
  4909 ;; Defined at:
  4910 ;;		line 46 in file "rtc.c"
  4911 ;; Parameters:    Size  Location     Type
  4912 ;;  address         1    wreg     unsigned char 
  4913 ;; Auto vars:     Size  Location     Type
  4914 ;;  address         1    1[COMRAM] unsigned char 
  4915 ;;  data            1    2[COMRAM] unsigned char 
  4916 ;; Return value:  Size  Location     Type
  4917 ;;                  1    wreg      unsigned char 
  4918 ;; Registers used:
  4919 ;;		wreg, status,2, cstack
  4920 ;; Tracked objects:
  4921 ;;		On entry : 0/0
  4922 ;;		On exit  : 0/0
  4923 ;;		Unchanged: 0/0
  4924 ;; Data sizes:     COMRAM   BANK0   BANK1   BANK2   BANK3   BANK4   BANK5
  4925 ;;      Params:         0       0       0       0       0       0       0
  4926 ;;      Locals:         2       0       0       0       0       0       0
  4927 ;;      Temps:          0       0       0       0       0       0       0
  4928 ;;      Totals:         2       0       0       0       0       0       0
  4929 ;;Total ram usage:        2 bytes
  4930 ;; Hardware stack levels used: 1
  4931 ;; Hardware stack levels required when called: 3
  4932 ;; This function calls:
  4933 ;;		_i2c_read
  4934 ;;		_i2c_rep_start
  4935 ;;		_i2c_start
  4936 ;;		_i2c_stop
  4937 ;;		_i2c_write
  4938 ;; This function is called by:
  4939 ;;		_read_rtc
  4940 ;;		_init_ds1307
  4941 ;; This function uses a non-reentrant model
  4942 ;;
  4943                           
  4944                           	psect	text25
  4945  00295E                     __ptext25:
  4946                           	callstack 0
  4947  00295E                     _read_ds1307:
  4948                           	callstack 25
  4949                           
  4950                           ;incstack = 0
  4951                           ;read_ds1307@address stored from wreg
  4952  00295E  6E02               	movwf	read_ds1307@address^0,c
  4953  002960                     
  4954                           ;rtc.c: 46: unsigned char read_ds1307(unsigned char address);rtc.c: 47: {;rtc.c: 48:  un
      +                          signed char data;;rtc.c: 50:  i2c_start();
  4955  002960  EC4C  F015         	call	_i2c_start	;wreg free
  4956  002964                     
  4957                           ;rtc.c: 51:  i2c_write(0xD0);
  4958  002964  0ED0               	movlw	208
  4959  002966  EC3C  F015         	call	_i2c_write
  4960  00296A                     
  4961                           ;rtc.c: 52:  i2c_write(address);
  4962  00296A  5002               	movf	read_ds1307@address^0,w,c
  4963  00296C  EC3C  F015         	call	_i2c_write
  4964  002970                     
  4965                           ;rtc.c: 53:  i2c_rep_start();
  4966  002970  EC50  F015         	call	_i2c_rep_start	;wreg free
  4967  002974                     
  4968                           ;rtc.c: 54:  i2c_write(0xD1);
  4969  002974  0ED1               	movlw	209
  4970  002976  EC3C  F015         	call	_i2c_write
  4971                           
  4972                           ;rtc.c: 55:  data = i2c_read();
  4973  00297A  EC42  F015         	call	_i2c_read	;wreg free
  4974  00297E  6E03               	movwf	read_ds1307@data^0,c
  4975  002980                     
  4976                           ;rtc.c: 56:  i2c_stop();
  4977  002980  EC48  F015         	call	_i2c_stop	;wreg free
  4978                           
  4979                           ;rtc.c: 58:  return data;
  4980  002984  5003               	movf	read_ds1307@data^0,w,c
  4981  002986  0012               	return		;funcret
  4982  002988                     __end_of_read_ds1307:
  4983                           	callstack 0
  4984                           
  4985 ;; *************** function _i2c_write *****************
  4986 ;; Defined at:
  4987 ;;		line 57 in file "i2c.c"
  4988 ;; Parameters:    Size  Location     Type
  4989 ;;  data            1    wreg     unsigned char 
  4990 ;; Auto vars:     Size  Location     Type
  4991 ;;  data            1    0[COMRAM] unsigned char 
  4992 ;; Return value:  Size  Location     Type
  4993 ;;                  1    wreg      void 
  4994 ;; Registers used:
  4995 ;;		wreg, cstack
  4996 ;; Tracked objects:
  4997 ;;		On entry : 0/0
  4998 ;;		On exit  : 0/0
  4999 ;;		Unchanged: 0/0
  5000 ;; Data sizes:     COMRAM   BANK0   BANK1   BANK2   BANK3   BANK4   BANK5
  5001 ;;      Params:         0       0       0       0       0       0       0
  5002 ;;      Locals:         1       0       0       0       0       0       0
  5003 ;;      Temps:          0       0       0       0       0       0       0
  5004 ;;      Totals:         1       0       0       0       0       0       0
  5005 ;;Total ram usage:        1 bytes
  5006 ;; Hardware stack levels used: 1
  5007 ;; Hardware stack levels required when called: 1
  5008 ;; This function calls:
  5009 ;;		_i2c_idle
  5010 ;; This function is called by:
  5011 ;;		_write_ds1307
  5012 ;;		_read_ds1307
  5013 ;;		_write_external_eeprom
  5014 ;;		_read_external_eeprom
  5015 ;; This function uses a non-reentrant model
  5016 ;;
  5017                           
  5018                           	psect	text26
  5019  002A78                     __ptext26:
  5020                           	callstack 0
  5021  002A78                     _i2c_write:
  5022                           	callstack 27
  5023                           
  5024                           ;incstack = 0
  5025                           ;i2c_write@data stored from wreg
  5026  002A78  6E01               	movwf	i2c_write@data^0,c
  5027  002A7A                     
  5028                           ;i2c.c: 57: void i2c_write(unsigned char data);i2c.c: 58: {;i2c.c: 59:  SSPBUF = data;
  5029  002A7A  C001  FFC9         	movff	i2c_write@data,4041	;volatile
  5030  002A7E                     
  5031                           ;i2c.c: 60:  i2c_idle();
  5032  002A7E  EC16  F015         	call	_i2c_idle	;wreg free
  5033  002A82  0012               	return		;funcret
  5034  002A84                     __end_of_i2c_write:
  5035                           	callstack 0
  5036                           
  5037 ;; *************** function _i2c_stop *****************
  5038 ;; Defined at:
  5039 ;;		line 45 in file "i2c.c"
  5040 ;; Parameters:    Size  Location     Type
  5041 ;;		None
  5042 ;; Auto vars:     Size  Location     Type
  5043 ;;		None
  5044 ;; Return value:  Size  Location     Type
  5045 ;;                  1    wreg      void 
  5046 ;; Registers used:
  5047 ;;		cstack
  5048 ;; Tracked objects:
  5049 ;;		On entry : 0/0
  5050 ;;		On exit  : 0/0
  5051 ;;		Unchanged: 0/0
  5052 ;; Data sizes:     COMRAM   BANK0   BANK1   BANK2   BANK3   BANK4   BANK5
  5053 ;;      Params:         0       0       0       0       0       0       0
  5054 ;;      Locals:         0       0       0       0       0       0       0
  5055 ;;      Temps:          0       0       0       0       0       0       0
  5056 ;;      Totals:         0       0       0       0       0       0       0
  5057 ;;Total ram usage:        0 bytes
  5058 ;; Hardware stack levels used: 1
  5059 ;; Hardware stack levels required when called: 1
  5060 ;; This function calls:
  5061 ;;		_i2c_idle
  5062 ;; This function is called by:
  5063 ;;		_write_ds1307
  5064 ;;		_read_ds1307
  5065 ;;		_write_external_eeprom
  5066 ;;		_read_external_eeprom
  5067 ;; This function uses a non-reentrant model
  5068 ;;
  5069                           
  5070                           	psect	text27
  5071  002A90                     __ptext27:
  5072                           	callstack 0
  5073  002A90                     _i2c_stop:
  5074                           	callstack 27
  5075  002A90                     
  5076                           ;i2c.c: 47:  PEN = 1;
  5077  002A90  84C5               	bsf	4037,2,c	;volatile
  5078  002A92                     
  5079                           ;i2c.c: 48:  i2c_idle();
  5080  002A92  EC16  F015         	call	_i2c_idle	;wreg free
  5081  002A96  0012               	return		;funcret
  5082  002A98                     __end_of_i2c_stop:
  5083                           	callstack 0
  5084                           
  5085 ;; *************** function _i2c_start *****************
  5086 ;; Defined at:
  5087 ;;		line 39 in file "i2c.c"
  5088 ;; Parameters:    Size  Location     Type
  5089 ;;		None
  5090 ;; Auto vars:     Size  Location     Type
  5091 ;;		None
  5092 ;; Return value:  Size  Location     Type
  5093 ;;                  1    wreg      void 
  5094 ;; Registers used:
  5095 ;;		cstack
  5096 ;; Tracked objects:
  5097 ;;		On entry : 0/0
  5098 ;;		On exit  : 0/0
  5099 ;;		Unchanged: 0/0
  5100 ;; Data sizes:     COMRAM   BANK0   BANK1   BANK2   BANK3   BANK4   BANK5
  5101 ;;      Params:         0       0       0       0       0       0       0
  5102 ;;      Locals:         0       0       0       0       0       0       0
  5103 ;;      Temps:          0       0       0       0       0       0       0
  5104 ;;      Totals:         0       0       0       0       0       0       0
  5105 ;;Total ram usage:        0 bytes
  5106 ;; Hardware stack levels used: 1
  5107 ;; Hardware stack levels required when called: 1
  5108 ;; This function calls:
  5109 ;;		_i2c_idle
  5110 ;; This function is called by:
  5111 ;;		_write_ds1307
  5112 ;;		_read_ds1307
  5113 ;;		_write_external_eeprom
  5114 ;;		_read_external_eeprom
  5115 ;; This function uses a non-reentrant model
  5116 ;;
  5117                           
  5118                           	psect	text28
  5119  002A98                     __ptext28:
  5120                           	callstack 0
  5121  002A98                     _i2c_start:
  5122                           	callstack 27
  5123  002A98                     
  5124                           ;i2c.c: 41:  SEN = 1;
  5125  002A98  80C5               	bsf	4037,0,c	;volatile
  5126  002A9A                     
  5127                           ;i2c.c: 42:  i2c_idle();
  5128  002A9A  EC16  F015         	call	_i2c_idle	;wreg free
  5129  002A9E  0012               	return		;funcret
  5130  002AA0                     __end_of_i2c_start:
  5131                           	callstack 0
  5132                           
  5133 ;; *************** function _i2c_rep_start *****************
  5134 ;; Defined at:
  5135 ;;		line 51 in file "i2c.c"
  5136 ;; Parameters:    Size  Location     Type
  5137 ;;		None
  5138 ;; Auto vars:     Size  Location     Type
  5139 ;;		None
  5140 ;; Return value:  Size  Location     Type
  5141 ;;                  1    wreg      void 
  5142 ;; Registers used:
  5143 ;;		cstack
  5144 ;; Tracked objects:
  5145 ;;		On entry : 0/0
  5146 ;;		On exit  : 0/0
  5147 ;;		Unchanged: 0/0
  5148 ;; Data sizes:     COMRAM   BANK0   BANK1   BANK2   BANK3   BANK4   BANK5
  5149 ;;      Params:         0       0       0       0       0       0       0
  5150 ;;      Locals:         0       0       0       0       0       0       0
  5151 ;;      Temps:          0       0       0       0       0       0       0
  5152 ;;      Totals:         0       0       0       0       0       0       0
  5153 ;;Total ram usage:        0 bytes
  5154 ;; Hardware stack levels used: 1
  5155 ;; Hardware stack levels required when called: 1
  5156 ;; This function calls:
  5157 ;;		_i2c_idle
  5158 ;; This function is called by:
  5159 ;;		_read_ds1307
  5160 ;;		_read_external_eeprom
  5161 ;; This function uses a non-reentrant model
  5162 ;;
  5163                           
  5164                           	psect	text29
  5165  002AA0                     __ptext29:
  5166                           	callstack 0
  5167  002AA0                     _i2c_rep_start:
  5168                           	callstack 27
  5169  002AA0                     
  5170                           ;i2c.c: 53:  RSEN = 1;
  5171  002AA0  82C5               	bsf	4037,1,c	;volatile
  5172  002AA2                     
  5173                           ;i2c.c: 54:  i2c_idle();
  5174  002AA2  EC16  F015         	call	_i2c_idle	;wreg free
  5175  002AA6  0012               	return		;funcret
  5176  002AA8                     __end_of_i2c_rep_start:
  5177                           	callstack 0
  5178                           
  5179 ;; *************** function _i2c_read *****************
  5180 ;; Defined at:
  5181 ;;		line 75 in file "i2c.c"
  5182 ;; Parameters:    Size  Location     Type
  5183 ;;		None
  5184 ;; Auto vars:     Size  Location     Type
  5185 ;;		None
  5186 ;; Return value:  Size  Location     Type
  5187 ;;                  1    wreg      unsigned char 
  5188 ;; Registers used:
  5189 ;;		wreg, status,2, cstack
  5190 ;; Tracked objects:
  5191 ;;		On entry : 0/0
  5192 ;;		On exit  : 0/0
  5193 ;;		Unchanged: 0/0
  5194 ;; Data sizes:     COMRAM   BANK0   BANK1   BANK2   BANK3   BANK4   BANK5
  5195 ;;      Params:         0       0       0       0       0       0       0
  5196 ;;      Locals:         0       0       0       0       0       0       0
  5197 ;;      Temps:          0       0       0       0       0       0       0
  5198 ;;      Totals:         0       0       0       0       0       0       0
  5199 ;;Total ram usage:        0 bytes
  5200 ;; Hardware stack levels used: 1
  5201 ;; Hardware stack levels required when called: 2
  5202 ;; This function calls:
  5203 ;;		_i2c_no_ack
  5204 ;;		_i2c_rx_mode
  5205 ;; This function is called by:
  5206 ;;		_read_ds1307
  5207 ;;		_read_external_eeprom
  5208 ;; This function uses a non-reentrant model
  5209 ;;
  5210                           
  5211                           	psect	text30
  5212  002A84                     __ptext30:
  5213                           	callstack 0
  5214  002A84                     _i2c_read:
  5215                           	callstack 26
  5216  002A84                     
  5217                           ;i2c.c: 77:  i2c_rx_mode();
  5218  002A84  EC54  F015         	call	_i2c_rx_mode	;wreg free
  5219                           
  5220                           ;i2c.c: 78:  i2c_no_ack();
  5221  002A88  EC58  F015         	call	_i2c_no_ack	;wreg free
  5222  002A8C                     
  5223                           ;i2c.c: 80:  return SSPBUF;
  5224  002A8C  50C9               	movf	201,w,c	;volatile
  5225  002A8E  0012               	return		;funcret
  5226  002A90                     __end_of_i2c_read:
  5227                           	callstack 0
  5228                           
  5229 ;; *************** function _i2c_rx_mode *****************
  5230 ;; Defined at:
  5231 ;;		line 63 in file "i2c.c"
  5232 ;; Parameters:    Size  Location     Type
  5233 ;;		None
  5234 ;; Auto vars:     Size  Location     Type
  5235 ;;		None
  5236 ;; Return value:  Size  Location     Type
  5237 ;;                  1    wreg      void 
  5238 ;; Registers used:
  5239 ;;		cstack
  5240 ;; Tracked objects:
  5241 ;;		On entry : 0/0
  5242 ;;		On exit  : 0/0
  5243 ;;		Unchanged: 0/0
  5244 ;; Data sizes:     COMRAM   BANK0   BANK1   BANK2   BANK3   BANK4   BANK5
  5245 ;;      Params:         0       0       0       0       0       0       0
  5246 ;;      Locals:         0       0       0       0       0       0       0
  5247 ;;      Temps:          0       0       0       0       0       0       0
  5248 ;;      Totals:         0       0       0       0       0       0       0
  5249 ;;Total ram usage:        0 bytes
  5250 ;; Hardware stack levels used: 1
  5251 ;; Hardware stack levels required when called: 1
  5252 ;; This function calls:
  5253 ;;		_i2c_idle
  5254 ;; This function is called by:
  5255 ;;		_i2c_read
  5256 ;; This function uses a non-reentrant model
  5257 ;;
  5258                           
  5259                           	psect	text31
  5260  002AA8                     __ptext31:
  5261                           	callstack 0
  5262  002AA8                     _i2c_rx_mode:
  5263                           	callstack 26
  5264  002AA8                     
  5265                           ;i2c.c: 65:  RCEN = 1;
  5266  002AA8  86C5               	bsf	4037,3,c	;volatile
  5267  002AAA                     
  5268                           ;i2c.c: 66:  i2c_idle();
  5269  002AAA  EC16  F015         	call	_i2c_idle	;wreg free
  5270  002AAE  0012               	return		;funcret
  5271  002AB0                     __end_of_i2c_rx_mode:
  5272                           	callstack 0
  5273                           
  5274 ;; *************** function _i2c_idle *****************
  5275 ;; Defined at:
  5276 ;;		line 25 in file "i2c.c"
  5277 ;; Parameters:    Size  Location     Type
  5278 ;;		None
  5279 ;; Auto vars:     Size  Location     Type
  5280 ;;		None
  5281 ;; Return value:  Size  Location     Type
  5282 ;;                  1    wreg      void 
  5283 ;; Registers used:
  5284 ;;		None
  5285 ;; Tracked objects:
  5286 ;;		On entry : 0/0
  5287 ;;		On exit  : 0/0
  5288 ;;		Unchanged: 0/0
  5289 ;; Data sizes:     COMRAM   BANK0   BANK1   BANK2   BANK3   BANK4   BANK5
  5290 ;;      Params:         0       0       0       0       0       0       0
  5291 ;;      Locals:         0       0       0       0       0       0       0
  5292 ;;      Temps:          0       0       0       0       0       0       0
  5293 ;;      Totals:         0       0       0       0       0       0       0
  5294 ;;Total ram usage:        0 bytes
  5295 ;; Hardware stack levels used: 1
  5296 ;; This function calls:
  5297 ;;		Nothing
  5298 ;; This function is called by:
  5299 ;;		_i2c_start
  5300 ;;		_i2c_stop
  5301 ;;		_i2c_rep_start
  5302 ;;		_i2c_write
  5303 ;;		_i2c_rx_mode
  5304 ;; This function uses a non-reentrant model
  5305 ;;
  5306                           
  5307                           	psect	text32
  5308  002A2C                     __ptext32:
  5309                           	callstack 0
  5310  002A2C                     _i2c_idle:
  5311                           	callstack 27
  5312  002A2C                     l408:
  5313  002A2C  A69E               	btfss	3998,3,c	;volatile
  5314  002A2E  EF1B  F015         	goto	u1751
  5315  002A32  EF1D  F015         	goto	u1750
  5316  002A36                     u1751:
  5317  002A36  EF16  F015         	goto	l408
  5318  002A3A                     u1750:
  5319  002A3A                     
  5320                           ;i2c.c: 28:  SSPIF = 0;
  5321  002A3A  969E               	bcf	3998,3,c	;volatile
  5322  002A3C  0012               	return		;funcret
  5323  002A3E                     __end_of_i2c_idle:
  5324                           	callstack 0
  5325                           
  5326 ;; *************** function _i2c_no_ack *****************
  5327 ;; Defined at:
  5328 ;;		line 69 in file "i2c.c"
  5329 ;; Parameters:    Size  Location     Type
  5330 ;;		None
  5331 ;; Auto vars:     Size  Location     Type
  5332 ;;		None
  5333 ;; Return value:  Size  Location     Type
  5334 ;;                  1    wreg      void 
  5335 ;; Registers used:
  5336 ;;		None
  5337 ;; Tracked objects:
  5338 ;;		On entry : 0/0
  5339 ;;		On exit  : 0/0
  5340 ;;		Unchanged: 0/0
  5341 ;; Data sizes:     COMRAM   BANK0   BANK1   BANK2   BANK3   BANK4   BANK5
  5342 ;;      Params:         0       0       0       0       0       0       0
  5343 ;;      Locals:         0       0       0       0       0       0       0
  5344 ;;      Temps:          0       0       0       0       0       0       0
  5345 ;;      Totals:         0       0       0       0       0       0       0
  5346 ;;Total ram usage:        0 bytes
  5347 ;; Hardware stack levels used: 1
  5348 ;; This function calls:
  5349 ;;		Nothing
  5350 ;; This function is called by:
  5351 ;;		_i2c_read
  5352 ;; This function uses a non-reentrant model
  5353 ;;
  5354                           
  5355                           	psect	text33
  5356  002AB0                     __ptext33:
  5357                           	callstack 0
  5358  002AB0                     _i2c_no_ack:
  5359                           	callstack 27
  5360  002AB0                     
  5361                           ;i2c.c: 71:  ACKDT = 1;
  5362  002AB0  8AC5               	bsf	4037,5,c	;volatile
  5363                           
  5364                           ;i2c.c: 72:  ACKEN = 1;
  5365  002AB2  88C5               	bsf	4037,4,c	;volatile
  5366  002AB4  0012               	return		;funcret
  5367  002AB6                     __end_of_i2c_no_ack:
  5368                           	callstack 0
  5369                           
  5370 ;; *************** function _clear_log *****************
  5371 ;; Defined at:
  5372 ;;		line 44 in file "logs.c"
  5373 ;; Parameters:    Size  Location     Type
  5374 ;;		None
  5375 ;; Auto vars:     Size  Location     Type
  5376 ;;		None
  5377 ;; Return value:  Size  Location     Type
  5378 ;;                  1    wreg      unsigned char 
  5379 ;; Registers used:
  5380 ;;		wreg, fsr0l, fsr0h, status,2, status,0, tblptrl, tblptrh, tblptru, cstack
  5381 ;; Tracked objects:
  5382 ;;		On entry : 0/0
  5383 ;;		On exit  : 0/0
  5384 ;;		Unchanged: 0/0
  5385 ;; Data sizes:     COMRAM   BANK0   BANK1   BANK2   BANK3   BANK4   BANK5
  5386 ;;      Params:         0       0       0       0       0       0       0
  5387 ;;      Locals:         0       0       0       0       0       0       0
  5388 ;;      Temps:          2       0       0       0       0       0       0
  5389 ;;      Totals:         2       0       0       0       0       0       0
  5390 ;;Total ram usage:        2 bytes
  5391 ;; Hardware stack levels used: 1
  5392 ;; Hardware stack levels required when called: 2
  5393 ;; This function calls:
  5394 ;;		_clcd_print
  5395 ;;		_clcd_write
  5396 ;; This function is called by:
  5397 ;;		_main
  5398 ;; This function uses a non-reentrant model
  5399 ;;
  5400                           
  5401                           	psect	text34
  5402  0024F0                     __ptext34:
  5403                           	callstack 0
  5404  0024F0                     _clear_log:
  5405                           	callstack 28
  5406  0024F0                     
  5407                           ;logs.c: 46:     if(event_flag)
  5408  0024F0  505F               	movf	_event_flag^0,w,c
  5409  0024F2  B4D8               	btfsc	status,2,c
  5410  0024F4  EF7E  F012         	goto	u2531
  5411  0024F8  EF80  F012         	goto	u2530
  5412  0024FC                     u2531:
  5413  0024FC  EF94  F012         	goto	l3458
  5414  002500                     u2530:
  5415  002500                     
  5416                           ;logs.c: 47:     {;logs.c: 48:         event_flag = 0;
  5417  002500  0E00               	movlw	0
  5418  002502  6E5F               	movwf	_event_flag^0,c
  5419  002504                     
  5420                           ;logs.c: 49:         clcd_print("All logs",(0x80 + (5)));
  5421  002504  0E95               	movlw	low STR_10
  5422  002506  6E03               	movwf	clcd_print@data^0,c
  5423  002508  0E06               	movlw	high STR_10
  5424  00250A  6E04               	movwf	(clcd_print@data+1)^0,c
  5425  00250C  0E85               	movlw	133
  5426  00250E  6E05               	movwf	clcd_print@addr^0,c
  5427  002510  EC64  F013         	call	_clcd_print	;wreg free
  5428  002514                     
  5429                           ;logs.c: 50:         clcd_print("Cleared",(0xC0 + (6)));
  5430  002514  0E9E               	movlw	low STR_11
  5431  002516  6E03               	movwf	clcd_print@data^0,c
  5432  002518  0E06               	movlw	high STR_11
  5433  00251A  6E04               	movwf	(clcd_print@data+1)^0,c
  5434  00251C  0EC6               	movlw	198
  5435  00251E  6E05               	movwf	clcd_print@addr^0,c
  5436  002520  EC64  F013         	call	_clcd_print	;wreg free
  5437                           
  5438                           ;logs.c: 51:     }
  5439  002524  EF9C  F012         	goto	l3460
  5440  002528                     l3458:
  5441                           
  5442                           ;logs.c: 53:     {;logs.c: 54:         clcd_print("No logs",(0x80 + (5)));
  5443  002528  0EA6               	movlw	low STR_9
  5444  00252A  6E03               	movwf	clcd_print@data^0,c
  5445  00252C  0E06               	movlw	high STR_9
  5446  00252E  6E04               	movwf	(clcd_print@data+1)^0,c
  5447  002530  0E85               	movlw	133
  5448  002532  6E05               	movwf	clcd_print@addr^0,c
  5449  002534  EC64  F013         	call	_clcd_print	;wreg free
  5450  002538                     l3460:
  5451                           
  5452                           ;logs.c: 56:     _delay((unsigned long)((1000)*(20000000/4000.0)));
  5453  002538  0E1A               	movlw	26
  5454  00253A  6E07               	movwf	(??_clear_log+1)^0,c
  5455  00253C  0E5E               	movlw	94
  5456  00253E  6E06               	movwf	??_clear_log^0,c
  5457  002540  0E6E               	movlw	110
  5458  002542                     u3627:
  5459  002542  2EE8               	decfsz	wreg,f,c
  5460  002544  D7FE               	bra	u3627
  5461  002546  2E06               	decfsz	??_clear_log^0,f,c
  5462  002548  D7FC               	bra	u3627
  5463  00254A  2E07               	decfsz	(??_clear_log+1)^0,f,c
  5464  00254C  D7FA               	bra	u3627
  5465  00254E  D000               	nop2	
  5466  002550                     
  5467                           ;logs.c: 57:     clcd_write(0x01, 0);
  5468  002550  0E00               	movlw	0
  5469  002552  6E01               	movwf	clcd_write@control_bit^0,c
  5470  002554  0E01               	movlw	1
  5471  002556  EC51  F014         	call	_clcd_write
  5472  00255A                     
  5473                           ;logs.c: 58:     _delay((unsigned long)((500)*(20000000/4000000.0)));
  5474  00255A  0E04               	movlw	4
  5475  00255C  6E06               	movwf	??_clear_log^0,c
  5476  00255E  0E3E               	movlw	62
  5477  002560                     u3637:
  5478  002560  2EE8               	decfsz	wreg,f,c
  5479  002562  D7FE               	bra	u3637
  5480  002564  2E06               	decfsz	??_clear_log^0,f,c
  5481  002566  D7FC               	bra	u3637
  5482  002568                     
  5483                           ;logs.c: 59:     return 1;
  5484  002568  0E01               	movlw	1
  5485  00256A  0012               	return		;funcret
  5486  00256C                     __end_of_clear_log:
  5487                           	callstack 0
  5488                           
  5489 ;; *************** function _check_pssd *****************
  5490 ;; Defined at:
  5491 ;;		line 33 in file "black_box.c"
  5492 ;; Parameters:    Size  Location     Type
  5493 ;;  key             1    wreg     unsigned char 
  5494 ;; Auto vars:     Size  Location     Type
  5495 ;;  key             1   29[COMRAM] unsigned char 
  5496 ;;  i               4   25[COMRAM] unsigned long 
  5497 ;;  j               1   30[COMRAM] unsigned char 
  5498 ;;  s_pssd          5   20[COMRAM] unsigned char [5]
  5499 ;; Return value:  Size  Location     Type
  5500 ;;                  1    wreg      unsigned char 
  5501 ;; Registers used:
  5502 ;;		wreg, fsr0l, fsr0h, fsr1l, fsr1h, fsr2l, fsr2h, status,2, status,0, tblptrl, tblptrh, tblptru, cstack
  5503 ;; Tracked objects:
  5504 ;;		On entry : 0/0
  5505 ;;		On exit  : 0/0
  5506 ;;		Unchanged: 0/0
  5507 ;; Data sizes:     COMRAM   BANK0   BANK1   BANK2   BANK3   BANK4   BANK5
  5508 ;;      Params:         0       0       0       0       0       0       0
  5509 ;;      Locals:        11       0       0       0       0       0       0
  5510 ;;      Temps:          4       0       0       0       0       0       0
  5511 ;;      Totals:        15       0       0       0       0       0       0
  5512 ;;Total ram usage:       15 bytes
  5513 ;; Hardware stack levels used: 1
  5514 ;; Hardware stack levels required when called: 2
  5515 ;; This function calls:
  5516 ;;		___awdiv
  5517 ;;		___awmod
  5518 ;;		_clcd_print
  5519 ;;		_clcd_print_ch
  5520 ;;		_clcd_write
  5521 ;;		_read_to_eeprom
  5522 ;;		_strncmp
  5523 ;; This function is called by:
  5524 ;;		_main
  5525 ;; This function uses a non-reentrant model
  5526 ;;
  5527                           
  5528                           	psect	text35
  5529  001290                     __ptext35:
  5530                           	callstack 0
  5531  001290                     _check_pssd:
  5532                           	callstack 28
  5533                           
  5534                           ;incstack = 0
  5535                           ;check_pssd@key stored from wreg
  5536  001290  6E1E               	movwf	check_pssd@key^0,c
  5537  001292                     
  5538                           ;black_box.c: 33: unsigned char check_pssd(unsigned char key);black_box.c: 34: {;black_b
      +                          ox.c: 35:     static unsigned char pssd[5],attempt = 3,i = 0,t;;black_box.c: 36:     if(
      +                          attempt)
  5539  001292  0100               	movlb	0	; () banked
  5540  001294  51E6               	movf	check_pssd@attempt& (0+255),w,b
  5541  001296  B4D8               	btfsc	status,2,c
  5542  001298  EF50  F009         	goto	u2191
  5543  00129C  EF52  F009         	goto	u2190
  5544  0012A0                     u2191:
  5545  0012A0  EFB5  F009         	goto	l3220
  5546  0012A4                     u2190:
  5547  0012A4                     
  5548                           ; BSR set to: 0
  5549                           ;black_box.c: 37:     {;black_box.c: 39:         if(++t < 125)
  5550  0012A4  2BD4               	incf	check_pssd@t& (0+255),f,b
  5551  0012A6  0E7D               	movlw	125
  5552  0012A8  61D4               	cpfslt	check_pssd@t& (0+255),b
  5553  0012AA  EF59  F009         	goto	u2201
  5554  0012AE  EF5B  F009         	goto	u2200
  5555  0012B2                     u2201:
  5556  0012B2  EF63  F009         	goto	l3190
  5557  0012B6                     u2200:
  5558  0012B6                     
  5559                           ; BSR set to: 0
  5560                           ;black_box.c: 40:             clcd_print_ch('_',(0xC0 + (6+i)));
  5561  0012B6  505B               	movf	check_pssd@i^0,w,c
  5562  0012B8  0FC6               	addlw	198
  5563  0012BA  6E0F               	movwf	clcd_print_ch@addr^0,c
  5564  0012BC  0E5F               	movlw	95
  5565  0012BE  ECF4  F014         	call	_clcd_print_ch
  5566  0012C2  EF77  F009         	goto	l3198
  5567  0012C6                     l3190:
  5568                           
  5569                           ; BSR set to: 0
  5570  0012C6  0EFA               	movlw	250
  5571  0012C8  19D4               	xorwf	check_pssd@t& (0+255),w,b
  5572  0012CA  A4D8               	btfss	status,2,c
  5573  0012CC  EF6A  F009         	goto	u2211
  5574  0012D0  EF6C  F009         	goto	u2210
  5575  0012D4                     u2211:
  5576  0012D4  EF71  F009         	goto	l3196
  5577  0012D8                     u2210:
  5578  0012D8                     
  5579                           ; BSR set to: 0
  5580                           ;black_box.c: 42:         {;black_box.c: 43:             t = 0;
  5581  0012D8  0E00               	movlw	0
  5582  0012DA  6FD4               	movwf	check_pssd@t& (0+255),b
  5583  0012DC                     
  5584                           ; BSR set to: 0
  5585                           ;black_box.c: 44:             time1++;
  5586  0012DC  2BD5               	incf	_time1& (0+255),f,b
  5587                           
  5588                           ;black_box.c: 45:         }
  5589  0012DE  EF77  F009         	goto	l3198
  5590  0012E2                     l3196:
  5591                           
  5592                           ; BSR set to: 0
  5593                           ;black_box.c: 47:             clcd_print_ch(' ',(0xC0 + (6+i)));
  5594  0012E2  505B               	movf	check_pssd@i^0,w,c
  5595  0012E4  0FC6               	addlw	198
  5596  0012E6  6E0F               	movwf	clcd_print_ch@addr^0,c
  5597  0012E8  0E20               	movlw	32
  5598  0012EA  ECF4  F014         	call	_clcd_print_ch
  5599  0012EE                     l3198:
  5600                           
  5601                           ;black_box.c: 49:         clcd_print("Enter Password",(0x80 + (0)));
  5602  0012EE  0E51               	movlw	low STR_3
  5603  0012F0  6E03               	movwf	clcd_print@data^0,c
  5604  0012F2  0E06               	movlw	high STR_3
  5605  0012F4  6E04               	movwf	(clcd_print@data+1)^0,c
  5606  0012F6  0E80               	movlw	128
  5607  0012F8  6E05               	movwf	clcd_print@addr^0,c
  5608  0012FA  EC64  F013         	call	_clcd_print	;wreg free
  5609  0012FE                     
  5610                           ;black_box.c: 50:         if(key == 11)
  5611  0012FE  0E0B               	movlw	11
  5612  001300  181E               	xorwf	check_pssd@key^0,w,c
  5613  001302  A4D8               	btfss	status,2,c
  5614  001304  EF86  F009         	goto	u2221
  5615  001308  EF88  F009         	goto	u2220
  5616  00130C                     u2221:
  5617  00130C  EF9C  F009         	goto	l3210
  5618  001310                     u2220:
  5619  001310                     
  5620                           ;black_box.c: 51:         {;black_box.c: 52:            clcd_print_ch('*',(0xC0 + (6+i))
      +                          );
  5621  001310  505B               	movf	check_pssd@i^0,w,c
  5622  001312  0FC6               	addlw	198
  5623  001314  6E0F               	movwf	clcd_print_ch@addr^0,c
  5624  001316  0E2A               	movlw	42
  5625  001318  ECF4  F014         	call	_clcd_print_ch
  5626  00131C                     
  5627                           ;black_box.c: 53:            pssd[i++] = '0';
  5628  00131C  0EE0               	movlw	low check_pssd@pssd
  5629  00131E  245B               	addwf	check_pssd@i^0,w,c
  5630  001320  6ED9               	movwf	fsr2l,c
  5631  001322  6ADA               	clrf	fsr2h,c
  5632  001324  0E00               	movlw	high check_pssd@pssd
  5633  001326  22DA               	addwfc	fsr2h,f,c
  5634  001328  0E30               	movlw	48
  5635  00132A  6EDF               	movwf	indf2,c
  5636  00132C                     l3206:
  5637  00132C  2A5B               	incf	check_pssd@i^0,f,c
  5638  00132E                     
  5639                           ;black_box.c: 54:            time1 = 0;
  5640  00132E  0E00               	movlw	0
  5641  001330  0100               	movlb	0	; () banked
  5642  001332  6FD5               	movwf	_time1& (0+255),b
  5643                           
  5644                           ;black_box.c: 55:         }
  5645  001334  EF33  F00A         	goto	l3242
  5646  001338                     l3210:
  5647  001338  0E0C               	movlw	12
  5648  00133A  181E               	xorwf	check_pssd@key^0,w,c
  5649  00133C  A4D8               	btfss	status,2,c
  5650  00133E  EFA3  F009         	goto	u2231
  5651  001342  EFA5  F009         	goto	u2230
  5652  001346                     u2231:
  5653  001346  EF33  F00A         	goto	l3242
  5654  00134A                     u2230:
  5655  00134A                     
  5656                           ;black_box.c: 57:         {;black_box.c: 58:             clcd_print_ch('*',(0xC0 + (6+i)
      +                          ));
  5657  00134A  505B               	movf	check_pssd@i^0,w,c
  5658  00134C  0FC6               	addlw	198
  5659  00134E  6E0F               	movwf	clcd_print_ch@addr^0,c
  5660  001350  0E2A               	movlw	42
  5661  001352  ECF4  F014         	call	_clcd_print_ch
  5662  001356                     
  5663                           ;black_box.c: 59:             pssd[i++] = '1';
  5664  001356  0EE0               	movlw	low check_pssd@pssd
  5665  001358  245B               	addwf	check_pssd@i^0,w,c
  5666  00135A  6ED9               	movwf	fsr2l,c
  5667  00135C  6ADA               	clrf	fsr2h,c
  5668  00135E  0E00               	movlw	high check_pssd@pssd
  5669  001360  22DA               	addwfc	fsr2h,f,c
  5670  001362  0E31               	movlw	49
  5671  001364  6EDF               	movwf	indf2,c
  5672  001366  EF96  F009         	goto	l3206
  5673  00136A                     l3220:
  5674                           
  5675                           ; BSR set to: 0
  5676                           ;black_box.c: 64:     {;black_box.c: 65:         time1 = 0;
  5677  00136A  0E00               	movlw	0
  5678  00136C  6FD5               	movwf	_time1& (0+255),b
  5679                           
  5680                           ;black_box.c: 66:         sec = 120;
  5681  00136E  0E78               	movlw	120
  5682  001370  6E5E               	movwf	_sec^0,c
  5683  001372                     
  5684                           ; BSR set to: 0
  5685                           ;black_box.c: 67:         clcd_write(0x01, 0);
  5686  001372  0E00               	movlw	0
  5687  001374  6E01               	movwf	clcd_write@control_bit^0,c
  5688  001376  0E01               	movlw	1
  5689  001378  EC51  F014         	call	_clcd_write
  5690  00137C                     
  5691                           ;black_box.c: 69:         clcd_print("You are block",(0x80 + (0)));
  5692  00137C  0E6E               	movlw	low STR_4
  5693  00137E  6E03               	movwf	clcd_print@data^0,c
  5694  001380  0E06               	movlw	high STR_4
  5695  001382  6E04               	movwf	(clcd_print@data+1)^0,c
  5696  001384  0E80               	movlw	128
  5697  001386  6E05               	movwf	clcd_print@addr^0,c
  5698  001388  EC64  F013         	call	_clcd_print	;wreg free
  5699  00138C                     
  5700                           ;black_box.c: 70:         clcd_print("for 120sec... ",(0xC0 + (0)));
  5701  00138C  0E42               	movlw	low STR_5
  5702  00138E  6E03               	movwf	clcd_print@data^0,c
  5703  001390  0E06               	movlw	high STR_5
  5704  001392  6E04               	movwf	(clcd_print@data+1)^0,c
  5705  001394  0EC0               	movlw	192
  5706  001396  6E05               	movwf	clcd_print@addr^0,c
  5707  001398  EC64  F013         	call	_clcd_print	;wreg free
  5708                           
  5709                           ;black_box.c: 71:         while(sec)
  5710  00139C  EF23  F00A         	goto	l3236
  5711  0013A0                     l3228:
  5712                           
  5713                           ;black_box.c: 72:         {;black_box.c: 73:             clcd_print_ch(sec/100 + '0', (0
      +                          xC0 + (4)));
  5714  0013A0  0EC4               	movlw	196
  5715  0013A2  6E0F               	movwf	clcd_print_ch@addr^0,c
  5716  0013A4  C05E  F001         	movff	_sec,___awdiv@dividend
  5717  0013A8  6A02               	clrf	(___awdiv@dividend+1)^0,c
  5718  0013AA  0E00               	movlw	0
  5719  0013AC  6E04               	movwf	(___awdiv@divisor+1)^0,c
  5720  0013AE  0E64               	movlw	100
  5721  0013B0  6E03               	movwf	___awdiv@divisor^0,c
  5722  0013B2  EC98  F010         	call	___awdiv	;wreg free
  5723  0013B6  5001               	movf	?___awdiv^0,w,c
  5724  0013B8  0F30               	addlw	48
  5725  0013BA  ECF4  F014         	call	_clcd_print_ch
  5726                           
  5727                           ;black_box.c: 74:             clcd_print_ch((sec/10)%10 + '0', (0xC0 + (5)));
  5728  0013BE  0EC5               	movlw	197
  5729  0013C0  6E0F               	movwf	clcd_print_ch@addr^0,c
  5730  0013C2  0E00               	movlw	0
  5731  0013C4  6E04               	movwf	(___awdiv@divisor+1)^0,c
  5732  0013C6  0E0A               	movlw	10
  5733  0013C8  6E03               	movwf	___awdiv@divisor^0,c
  5734  0013CA  C05E  F001         	movff	_sec,___awdiv@dividend
  5735  0013CE  6A02               	clrf	(___awdiv@dividend+1)^0,c
  5736  0013D0  EC98  F010         	call	___awdiv	;wreg free
  5737  0013D4  C001  F009         	movff	?___awdiv,___awmod@dividend
  5738  0013D8  C002  F00A         	movff	?___awdiv+1,___awmod@dividend+1
  5739  0013DC  0E00               	movlw	0
  5740  0013DE  6E0C               	movwf	(___awmod@divisor+1)^0,c
  5741  0013E0  0E0A               	movlw	10
  5742  0013E2  6E0B               	movwf	___awmod@divisor^0,c
  5743  0013E4  ECFA  F010         	call	___awmod	;wreg free
  5744  0013E8  5009               	movf	?___awmod^0,w,c
  5745  0013EA  0F30               	addlw	48
  5746  0013EC  ECF4  F014         	call	_clcd_print_ch
  5747                           
  5748                           ;black_box.c: 75:             clcd_print_ch(sec%10 + '0', (0xC0 + (6)));
  5749  0013F0  0EC6               	movlw	198
  5750  0013F2  6E0F               	movwf	clcd_print_ch@addr^0,c
  5751  0013F4  C05E  F009         	movff	_sec,___awmod@dividend
  5752  0013F8  6A0A               	clrf	(___awmod@dividend+1)^0,c
  5753  0013FA  0E00               	movlw	0
  5754  0013FC  6E0C               	movwf	(___awmod@divisor+1)^0,c
  5755  0013FE  0E0A               	movlw	10
  5756  001400  6E0B               	movwf	___awmod@divisor^0,c
  5757  001402  ECFA  F010         	call	___awmod	;wreg free
  5758  001406  5009               	movf	?___awmod^0,w,c
  5759  001408  0F30               	addlw	48
  5760  00140A  ECF4  F014         	call	_clcd_print_ch
  5761  00140E                     
  5762                           ;black_box.c: 76:             for(unsigned long i=300000; i--; );
  5763  00140E  0EE0               	movlw	224
  5764  001410  6E1A               	movwf	check_pssd@i_346^0,c
  5765  001412  0E93               	movlw	147
  5766  001414  6E1B               	movwf	(check_pssd@i_346+1)^0,c
  5767  001416  0E04               	movlw	4
  5768  001418  6E1C               	movwf	(check_pssd@i_346+2)^0,c
  5769  00141A  0E00               	movlw	0
  5770  00141C  6E1D               	movwf	(check_pssd@i_346+3)^0,c
  5771  00141E                     l3232:
  5772  00141E  061A               	decf	check_pssd@i_346^0,f,c
  5773  001420  0E00               	movlw	0
  5774  001422  5A1B               	subwfb	(check_pssd@i_346+1)^0,f,c
  5775  001424  5A1C               	subwfb	(check_pssd@i_346+2)^0,f,c
  5776  001426  5A1D               	subwfb	(check_pssd@i_346+3)^0,f,c
  5777  001428  281A               	incf	check_pssd@i_346^0,w,c
  5778  00142A  E10A               	bnz	u2241
  5779  00142C  281B               	incf	(check_pssd@i_346+1)^0,w,c
  5780  00142E  E108               	bnz	u2241
  5781  001430  281C               	incf	(check_pssd@i_346+2)^0,w,c
  5782  001432  E106               	bnz	u2241
  5783  001434  281D               	incf	(check_pssd@i_346+3)^0,w,c
  5784  001436  A4D8               	btfss	status,2,c
  5785  001438  EF20  F00A         	goto	u2241
  5786  00143C  EF22  F00A         	goto	u2240
  5787  001440                     u2241:
  5788  001440  EF0F  F00A         	goto	l3232
  5789  001444                     u2240:
  5790  001444                     
  5791                           ;black_box.c: 77:             sec--;
  5792  001444  065E               	decf	_sec^0,f,c
  5793  001446                     l3236:
  5794                           
  5795                           ;black_box.c: 71:         while(sec)
  5796  001446  505E               	movf	_sec^0,w,c
  5797  001448  A4D8               	btfss	status,2,c
  5798  00144A  EF29  F00A         	goto	u2251
  5799  00144E  EF2B  F00A         	goto	u2250
  5800  001452                     u2251:
  5801  001452  EFD0  F009         	goto	l3228
  5802  001456                     u2250:
  5803  001456                     
  5804                           ;black_box.c: 79:         attempt = 3;
  5805  001456  0E03               	movlw	3
  5806  001458  0100               	movlb	0	; () banked
  5807  00145A  6FE6               	movwf	check_pssd@attempt& (0+255),b
  5808  00145C                     
  5809                           ; BSR set to: 0
  5810                           ;black_box.c: 80:         clcd_write(0x01, 0);
  5811  00145C  0E00               	movlw	0
  5812  00145E  6E01               	movwf	clcd_write@control_bit^0,c
  5813  001460  0E01               	movlw	1
  5814  001462  EC51  F014         	call	_clcd_write
  5815  001466                     l3242:
  5816                           
  5817                           ;black_box.c: 82:     if(i == 4)
  5818  001466  0E04               	movlw	4
  5819  001468  185B               	xorwf	check_pssd@i^0,w,c
  5820  00146A  A4D8               	btfss	status,2,c
  5821  00146C  EF3A  F00A         	goto	u2261
  5822  001470  EF3C  F00A         	goto	u2260
  5823  001474                     u2261:
  5824  001474  EFC3  F00A         	goto	l3288
  5825  001478                     u2260:
  5826  001478                     
  5827                           ;black_box.c: 83:     {;black_box.c: 85:         unsigned char s_pssd[5];;black_box.c: 8
      +                          6:         for(char j=161; j<165 ; j++)
  5828  001478  0EA1               	movlw	161
  5829  00147A  6E1F               	movwf	check_pssd@j^0,c
  5830  00147C                     l3250:
  5831                           
  5832                           ;black_box.c: 87:         {;black_box.c: 88:             s_pssd[j-161] = read_to_eeprom(
      +                          j);
  5833  00147C  0E5F               	movlw	95
  5834  00147E  6E11               	movwf	??_check_pssd^0,c
  5835  001480  0EFF               	movlw	255
  5836  001482  6E12               	movwf	(??_check_pssd+1)^0,c
  5837  001484  501F               	movf	check_pssd@j^0,w,c
  5838  001486  6E13               	movwf	(??_check_pssd+2)^0,c
  5839  001488  6A14               	clrf	(??_check_pssd+3)^0,c
  5840  00148A  5011               	movf	??_check_pssd^0,w,c
  5841  00148C  2613               	addwf	(??_check_pssd+2)^0,f,c
  5842  00148E  5012               	movf	(??_check_pssd+1)^0,w,c
  5843  001490  2214               	addwfc	(??_check_pssd+3)^0,f,c
  5844  001492  0E15               	movlw	low check_pssd@s_pssd
  5845  001494  2413               	addwf	(??_check_pssd+2)^0,w,c
  5846  001496  6ED9               	movwf	fsr2l,c
  5847  001498  0E00               	movlw	high check_pssd@s_pssd
  5848  00149A  2014               	addwfc	(??_check_pssd+3)^0,w,c
  5849  00149C  6EDA               	movwf	fsr2h,c
  5850  00149E  501F               	movf	check_pssd@j^0,w,c
  5851  0014A0  EC27  F015         	call	_read_to_eeprom
  5852  0014A4  6EDF               	movwf	indf2,c
  5853  0014A6                     
  5854                           ;black_box.c: 89:         }
  5855  0014A6  2A1F               	incf	check_pssd@j^0,f,c
  5856  0014A8  0EA4               	movlw	164
  5857  0014AA  641F               	cpfsgt	check_pssd@j^0,c
  5858  0014AC  EF5A  F00A         	goto	u2271
  5859  0014B0  EF5C  F00A         	goto	u2270
  5860  0014B4                     u2271:
  5861  0014B4  EF3E  F00A         	goto	l3250
  5862  0014B8                     u2270:
  5863  0014B8                     
  5864                           ;black_box.c: 90:         i = 0;
  5865  0014B8  0E00               	movlw	0
  5866  0014BA  6E5B               	movwf	check_pssd@i^0,c
  5867  0014BC                     
  5868                           ;black_box.c: 91:         if(--attempt)
  5869  0014BC  0E01               	movlw	1
  5870  0014BE  0100               	movlb	0	; () banked
  5871  0014C0  5FE6               	subwf	check_pssd@attempt& (0+255),f,b
  5872  0014C2  B4D8               	btfsc	status,2,c
  5873  0014C4  EF66  F00A         	goto	u2281
  5874  0014C8  EF68  F00A         	goto	u2280
  5875  0014CC                     u2281:
  5876  0014CC  EFD4  F00A         	goto	l3296
  5877  0014D0                     u2280:
  5878  0014D0                     
  5879                           ; BSR set to: 0
  5880                           ;black_box.c: 92:         {;black_box.c: 94:             if(!strncmp(s_pssd,pssd,4))
  5881  0014D0  0E15               	movlw	low check_pssd@s_pssd
  5882  0014D2  6E01               	movwf	strncmp@_l^0,c
  5883  0014D4  0E00               	movlw	high check_pssd@s_pssd
  5884  0014D6  6E02               	movwf	(strncmp@_l+1)^0,c
  5885  0014D8  0EE0               	movlw	low check_pssd@pssd
  5886  0014DA  6E03               	movwf	strncmp@_r^0,c
  5887  0014DC  0E00               	movlw	high check_pssd@pssd
  5888  0014DE  6E04               	movwf	(strncmp@_r+1)^0,c
  5889  0014E0  0E00               	movlw	0
  5890  0014E2  6E06               	movwf	(strncmp@n+1)^0,c
  5891  0014E4  0E04               	movlw	4
  5892  0014E6  6E05               	movwf	strncmp@n^0,c
  5893  0014E8  ECCD  F00F         	call	_strncmp	;wreg free
  5894  0014EC  5001               	movf	?_strncmp^0,w,c
  5895  0014EE  1002               	iorwf	(?_strncmp+1)^0,w,c
  5896  0014F0  A4D8               	btfss	status,2,c
  5897  0014F2  EF7D  F00A         	goto	u2291
  5898  0014F6  EF7F  F00A         	goto	u2290
  5899  0014FA                     u2291:
  5900  0014FA  EF94  F00A         	goto	l3276
  5901  0014FE                     u2290:
  5902  0014FE                     
  5903                           ;black_box.c: 95:             {;black_box.c: 96:                 attempt = 3;
  5904  0014FE  0E03               	movlw	3
  5905  001500  0100               	movlb	0	; () banked
  5906  001502  6FE6               	movwf	check_pssd@attempt& (0+255),b
  5907  001504                     
  5908                           ; BSR set to: 0
  5909                           ;black_box.c: 97:                 clcd_write(0x01, 0);
  5910  001504  0E00               	movlw	0
  5911  001506  6E01               	movwf	clcd_write@control_bit^0,c
  5912  001508  0E01               	movlw	1
  5913  00150A  EC51  F014         	call	_clcd_write
  5914  00150E                     
  5915                           ;black_box.c: 98:                 _delay((unsigned long)((500)*(20000000/4000000.0)));
  5916  00150E  0E04               	movlw	4
  5917  001510  6E11               	movwf	??_check_pssd^0,c
  5918  001512  0E3E               	movlw	62
  5919  001514                     u3647:
  5920  001514  2EE8               	decfsz	wreg,f,c
  5921  001516  D7FE               	bra	u3647
  5922  001518  2E11               	decfsz	??_check_pssd^0,f,c
  5923  00151A  D7FC               	bra	u3647
  5924  00151C                     
  5925                           ;black_box.c: 99:                 time1 = 0;
  5926  00151C  0E00               	movlw	0
  5927  00151E  0100               	movlb	0	; () banked
  5928  001520  6FD5               	movwf	_time1& (0+255),b
  5929  001522                     
  5930                           ; BSR set to: 0
  5931                           ;black_box.c: 100:                 return 3;
  5932  001522  0E03               	movlw	3
  5933  001524  EFD5  F00A         	goto	l256
  5934  001528                     l3276:
  5935                           
  5936                           ;black_box.c: 103:             {;black_box.c: 104:                 clcd_write(0x01, 0);
  5937  001528  0E00               	movlw	0
  5938  00152A  6E01               	movwf	clcd_write@control_bit^0,c
  5939  00152C  0E01               	movlw	1
  5940  00152E  EC51  F014         	call	_clcd_write
  5941  001532                     
  5942                           ;black_box.c: 105:                 clcd_print("Login Failed",(0x80 + (0)));
  5943  001532  0E7C               	movlw	low STR_6
  5944  001534  6E03               	movwf	clcd_print@data^0,c
  5945  001536  0E06               	movlw	high STR_6
  5946  001538  6E04               	movwf	(clcd_print@data+1)^0,c
  5947  00153A  0E80               	movlw	128
  5948  00153C  6E05               	movwf	clcd_print@addr^0,c
  5949  00153E  EC64  F013         	call	_clcd_print	;wreg free
  5950  001542                     
  5951                           ;black_box.c: 106:                 clcd_print_ch(attempt+'0',(0xC0 + (0)));
  5952  001542  0EC0               	movlw	192
  5953  001544  6E0F               	movwf	clcd_print_ch@addr^0,c
  5954  001546  0100               	movlb	0	; () banked
  5955  001548  51E6               	movf	check_pssd@attempt& (0+255),w,b
  5956  00154A  0F30               	addlw	48
  5957  00154C  ECF4  F014         	call	_clcd_print_ch
  5958  001550                     
  5959                           ;black_box.c: 107:                 clcd_print("attempt rem",(0xC0 + (2)));
  5960  001550  0E89               	movlw	low STR_7
  5961  001552  6E03               	movwf	clcd_print@data^0,c
  5962  001554  0E06               	movlw	high STR_7
  5963  001556  6E04               	movwf	(clcd_print@data+1)^0,c
  5964  001558  0EC2               	movlw	194
  5965  00155A  6E05               	movwf	clcd_print@addr^0,c
  5966  00155C  EC64  F013         	call	_clcd_print	;wreg free
  5967  001560                     
  5968                           ;black_box.c: 108:                 _delay((unsigned long)((1000)*(20000000/4000.0)));
  5969  001560  0E1A               	movlw	26
  5970  001562  6E12               	movwf	(??_check_pssd+1)^0,c
  5971  001564  0E5E               	movlw	94
  5972  001566  6E11               	movwf	??_check_pssd^0,c
  5973  001568  0E6E               	movlw	110
  5974  00156A                     u3657:
  5975  00156A  2EE8               	decfsz	wreg,f,c
  5976  00156C  D7FE               	bra	u3657
  5977  00156E  2E11               	decfsz	??_check_pssd^0,f,c
  5978  001570  D7FC               	bra	u3657
  5979  001572  2E12               	decfsz	(??_check_pssd+1)^0,f,c
  5980  001574  D7FA               	bra	u3657
  5981  001576  D000               	nop2	
  5982  001578                     
  5983                           ;black_box.c: 109:                 clcd_write(0x01, 0);
  5984  001578  0E00               	movlw	0
  5985  00157A  6E01               	movwf	clcd_write@control_bit^0,c
  5986  00157C  0E01               	movlw	1
  5987  00157E  EC51  F014         	call	_clcd_write
  5988  001582  EFD4  F00A         	goto	l3296
  5989  001586                     l3288:
  5990  001586  0E05               	movlw	5
  5991  001588  0100               	movlb	0	; () banked
  5992  00158A  19D5               	xorwf	_time1& (0+255),w,b
  5993  00158C  A4D8               	btfss	status,2,c
  5994  00158E  EFCB  F00A         	goto	u2301
  5995  001592  EFCD  F00A         	goto	u2300
  5996  001596                     u2301:
  5997  001596  EFD4  F00A         	goto	l3296
  5998  00159A                     u2300:
  5999  00159A                     
  6000                           ; BSR set to: 0
  6001                           ;black_box.c: 114:     {;black_box.c: 115:         i = 0;
  6002  00159A  0E00               	movlw	0
  6003  00159C  6E5B               	movwf	check_pssd@i^0,c
  6004                           
  6005                           ;black_box.c: 116:         time1 = 0;
  6006  00159E  0E00               	movlw	0
  6007  0015A0  6FD5               	movwf	_time1& (0+255),b
  6008  0015A2                     
  6009                           ; BSR set to: 0
  6010                           ;black_box.c: 117:         return 1;
  6011  0015A2  0E01               	movlw	1
  6012  0015A4  EFD5  F00A         	goto	l256
  6013  0015A8                     l3296:
  6014                           
  6015                           ;black_box.c: 119:     return 2;
  6016  0015A8  0E02               	movlw	2
  6017  0015AA                     l256:
  6018  0015AA  0012               	return		;funcret
  6019  0015AC                     __end_of_check_pssd:
  6020                           	callstack 0
  6021                           
  6022 ;; *************** function _read_to_eeprom *****************
  6023 ;; Defined at:
  6024 ;;		line 21 in file "eeprom.c"
  6025 ;; Parameters:    Size  Location     Type
  6026 ;;  address         1    wreg     unsigned char 
  6027 ;; Auto vars:     Size  Location     Type
  6028 ;;  address         1    0[COMRAM] unsigned char 
  6029 ;; Return value:  Size  Location     Type
  6030 ;;                  1    wreg      unsigned char 
  6031 ;; Registers used:
  6032 ;;		wreg, status,2
  6033 ;; Tracked objects:
  6034 ;;		On entry : 0/0
  6035 ;;		On exit  : 0/0
  6036 ;;		Unchanged: 0/0
  6037 ;; Data sizes:     COMRAM   BANK0   BANK1   BANK2   BANK3   BANK4   BANK5
  6038 ;;      Params:         0       0       0       0       0       0       0
  6039 ;;      Locals:         1       0       0       0       0       0       0
  6040 ;;      Temps:          0       0       0       0       0       0       0
  6041 ;;      Totals:         1       0       0       0       0       0       0
  6042 ;;Total ram usage:        1 bytes
  6043 ;; Hardware stack levels used: 1
  6044 ;; This function calls:
  6045 ;;		Nothing
  6046 ;; This function is called by:
  6047 ;;		_check_pssd
  6048 ;; This function uses a non-reentrant model
  6049 ;;
  6050                           
  6051                           	psect	text36
  6052  002A4E                     __ptext36:
  6053                           	callstack 0
  6054  002A4E                     _read_to_eeprom:
  6055                           	callstack 29
  6056                           
  6057                           ;incstack = 0
  6058                           ;read_to_eeprom@address stored from wreg
  6059  002A4E  6E01               	movwf	read_to_eeprom@address^0,c
  6060  002A50                     
  6061                           ;eeprom.c: 21: unsigned char read_to_eeprom(unsigned char address);eeprom.c: 22: {;eepro
      +                          m.c: 23:     EEADR = address;
  6062  002A50  C001  FFA9         	movff	read_to_eeprom@address,4009	;volatile
  6063  002A54                     
  6064                           ;eeprom.c: 24:     EEPGD = 0;
  6065  002A54  9EA6               	bcf	4006,7,c	;volsfr
  6066  002A56                     
  6067                           ;eeprom.c: 25:     CFGS = 0;
  6068  002A56  9CA6               	bcf	4006,6,c	;volsfr
  6069  002A58                     
  6070                           ;eeprom.c: 26:     RD = 1;
  6071  002A58  80A6               	bsf	4006,0,c	;volsfr
  6072  002A5A                     
  6073                           ;eeprom.c: 28:     return EEDATA;
  6074  002A5A  50A8               	movf	168,w,c	;volatile
  6075  002A5C  0012               	return		;funcret
  6076  002A5E                     __end_of_read_to_eeprom:
  6077                           	callstack 0
  6078                           
  6079 ;; *************** function ___awmod *****************
  6080 ;; Defined at:
  6081 ;;		line 7 in file "C:\Program Files\Microchip\xc8\v2.36\pic\sources\c99\common\awmod.c"
  6082 ;; Parameters:    Size  Location     Type
  6083 ;;  dividend        2    8[COMRAM] int 
  6084 ;;  divisor         2   10[COMRAM] int 
  6085 ;; Auto vars:     Size  Location     Type
  6086 ;;  sign            1   13[COMRAM] unsigned char 
  6087 ;;  counter         1   12[COMRAM] unsigned char 
  6088 ;; Return value:  Size  Location     Type
  6089 ;;                  2    8[COMRAM] int 
  6090 ;; Registers used:
  6091 ;;		wreg, status,2, status,0
  6092 ;; Tracked objects:
  6093 ;;		On entry : 0/0
  6094 ;;		On exit  : 0/0
  6095 ;;		Unchanged: 0/0
  6096 ;; Data sizes:     COMRAM   BANK0   BANK1   BANK2   BANK3   BANK4   BANK5
  6097 ;;      Params:         4       0       0       0       0       0       0
  6098 ;;      Locals:         2       0       0       0       0       0       0
  6099 ;;      Temps:          0       0       0       0       0       0       0
  6100 ;;      Totals:         6       0       0       0       0       0       0
  6101 ;;Total ram usage:        6 bytes
  6102 ;; Hardware stack levels used: 1
  6103 ;; This function calls:
  6104 ;;		Nothing
  6105 ;; This function is called by:
  6106 ;;		_main
  6107 ;;		_display
  6108 ;;		_check_pssd
  6109 ;;		_log_event
  6110 ;;		_set_time
  6111 ;; This function uses a non-reentrant model
  6112 ;;
  6113                           
  6114                           	psect	text37
  6115  0021F4                     __ptext37:
  6116                           	callstack 0
  6117  0021F4                     ___awmod:
  6118                           	callstack 29
  6119  0021F4  0E00               	movlw	0
  6120  0021F6  6E0E               	movwf	___awmod@sign^0,c
  6121  0021F8  BE0A               	btfsc	(___awmod@dividend+1)^0,7,c
  6122  0021FA  EF03  F011         	goto	u2100
  6123  0021FE  EF01  F011         	goto	u2101
  6124  002202                     u2101:
  6125  002202  EF09  F011         	goto	l3096
  6126  002206                     u2100:
  6127  002206  6C09               	negf	___awmod@dividend^0,c
  6128  002208  1E0A               	comf	(___awmod@dividend+1)^0,f,c
  6129  00220A  B0D8               	btfsc	status,0,c
  6130  00220C  2A0A               	incf	(___awmod@dividend+1)^0,f,c
  6131  00220E  0E01               	movlw	1
  6132  002210  6E0E               	movwf	___awmod@sign^0,c
  6133  002212                     l3096:
  6134  002212  BE0C               	btfsc	(___awmod@divisor+1)^0,7,c
  6135  002214  EF10  F011         	goto	u2110
  6136  002218  EF0E  F011         	goto	u2111
  6137  00221C                     u2111:
  6138  00221C  EF14  F011         	goto	l3100
  6139  002220                     u2110:
  6140  002220  6C0B               	negf	___awmod@divisor^0,c
  6141  002222  1E0C               	comf	(___awmod@divisor+1)^0,f,c
  6142  002224  B0D8               	btfsc	status,0,c
  6143  002226  2A0C               	incf	(___awmod@divisor+1)^0,f,c
  6144  002228                     l3100:
  6145  002228  500B               	movf	___awmod@divisor^0,w,c
  6146  00222A  100C               	iorwf	(___awmod@divisor+1)^0,w,c
  6147  00222C  B4D8               	btfsc	status,2,c
  6148  00222E  EF1B  F011         	goto	u2121
  6149  002232  EF1D  F011         	goto	u2120
  6150  002236                     u2121:
  6151  002236  EF41  F011         	goto	l3116
  6152  00223A                     u2120:
  6153  00223A  0E01               	movlw	1
  6154  00223C  6E0D               	movwf	___awmod@counter^0,c
  6155  00223E  EF25  F011         	goto	l3106
  6156  002242                     l3104:
  6157  002242  90D8               	bcf	status,0,c
  6158  002244  360B               	rlcf	___awmod@divisor^0,f,c
  6159  002246  360C               	rlcf	(___awmod@divisor+1)^0,f,c
  6160  002248  2A0D               	incf	___awmod@counter^0,f,c
  6161  00224A                     l3106:
  6162  00224A  AE0C               	btfss	(___awmod@divisor+1)^0,7,c
  6163  00224C  EF2A  F011         	goto	u2131
  6164  002250  EF2C  F011         	goto	u2130
  6165  002254                     u2131:
  6166  002254  EF21  F011         	goto	l3104
  6167  002258                     u2130:
  6168  002258                     l3108:
  6169  002258  500B               	movf	___awmod@divisor^0,w,c
  6170  00225A  5C09               	subwf	___awmod@dividend^0,w,c
  6171  00225C  500C               	movf	(___awmod@divisor+1)^0,w,c
  6172  00225E  580A               	subwfb	(___awmod@dividend+1)^0,w,c
  6173  002260  A0D8               	btfss	status,0,c
  6174  002262  EF35  F011         	goto	u2141
  6175  002266  EF37  F011         	goto	u2140
  6176  00226A                     u2141:
  6177  00226A  EF3B  F011         	goto	l3112
  6178  00226E                     u2140:
  6179  00226E  500B               	movf	___awmod@divisor^0,w,c
  6180  002270  5E09               	subwf	___awmod@dividend^0,f,c
  6181  002272  500C               	movf	(___awmod@divisor+1)^0,w,c
  6182  002274  5A0A               	subwfb	(___awmod@dividend+1)^0,f,c
  6183  002276                     l3112:
  6184  002276  90D8               	bcf	status,0,c
  6185  002278  320C               	rrcf	(___awmod@divisor+1)^0,f,c
  6186  00227A  320B               	rrcf	___awmod@divisor^0,f,c
  6187  00227C  2E0D               	decfsz	___awmod@counter^0,f,c
  6188  00227E  EF2C  F011         	goto	l3108
  6189  002282                     l3116:
  6190  002282  500E               	movf	___awmod@sign^0,w,c
  6191  002284  B4D8               	btfsc	status,2,c
  6192  002286  EF47  F011         	goto	u2151
  6193  00228A  EF49  F011         	goto	u2150
  6194  00228E                     u2151:
  6195  00228E  EF4D  F011         	goto	l3120
  6196  002292                     u2150:
  6197  002292  6C09               	negf	___awmod@dividend^0,c
  6198  002294  1E0A               	comf	(___awmod@dividend+1)^0,f,c
  6199  002296  B0D8               	btfsc	status,0,c
  6200  002298  2A0A               	incf	(___awmod@dividend+1)^0,f,c
  6201  00229A                     l3120:
  6202  00229A  C009  F009         	movff	___awmod@dividend,?___awmod
  6203  00229E  C00A  F00A         	movff	___awmod@dividend+1,?___awmod+1
  6204  0022A2  0012               	return		;funcret
  6205  0022A4                     __end_of___awmod:
  6206                           	callstack 0
  6207                           
  6208 ;; *************** function ___awdiv *****************
  6209 ;; Defined at:
  6210 ;;		line 7 in file "C:\Program Files\Microchip\xc8\v2.36\pic\sources\c99\common\awdiv.c"
  6211 ;; Parameters:    Size  Location     Type
  6212 ;;  dividend        2    0[COMRAM] int 
  6213 ;;  divisor         2    2[COMRAM] int 
  6214 ;; Auto vars:     Size  Location     Type
  6215 ;;  quotient        2    6[COMRAM] int 
  6216 ;;  sign            1    5[COMRAM] unsigned char 
  6217 ;;  counter         1    4[COMRAM] unsigned char 
  6218 ;; Return value:  Size  Location     Type
  6219 ;;                  2    0[COMRAM] int 
  6220 ;; Registers used:
  6221 ;;		wreg, status,2, status,0
  6222 ;; Tracked objects:
  6223 ;;		On entry : 0/0
  6224 ;;		On exit  : 0/0
  6225 ;;		Unchanged: 0/0
  6226 ;; Data sizes:     COMRAM   BANK0   BANK1   BANK2   BANK3   BANK4   BANK5
  6227 ;;      Params:         4       0       0       0       0       0       0
  6228 ;;      Locals:         4       0       0       0       0       0       0
  6229 ;;      Temps:          0       0       0       0       0       0       0
  6230 ;;      Totals:         8       0       0       0       0       0       0
  6231 ;;Total ram usage:        8 bytes
  6232 ;; Hardware stack levels used: 1
  6233 ;; This function calls:
  6234 ;;		Nothing
  6235 ;; This function is called by:
  6236 ;;		_main
  6237 ;;		_display
  6238 ;;		_check_pssd
  6239 ;;		_log_event
  6240 ;;		_set_time
  6241 ;; This function uses a non-reentrant model
  6242 ;;
  6243                           
  6244                           	psect	text38
  6245  002130                     __ptext38:
  6246                           	callstack 0
  6247  002130                     ___awdiv:
  6248                           	callstack 29
  6249  002130  0E00               	movlw	0
  6250  002132  6E06               	movwf	___awdiv@sign^0,c
  6251  002134  BE04               	btfsc	(___awdiv@divisor+1)^0,7,c
  6252  002136  EFA1  F010         	goto	u2040
  6253  00213A  EF9F  F010         	goto	u2041
  6254  00213E                     u2041:
  6255  00213E  EFA7  F010         	goto	l3052
  6256  002142                     u2040:
  6257  002142  6C03               	negf	___awdiv@divisor^0,c
  6258  002144  1E04               	comf	(___awdiv@divisor+1)^0,f,c
  6259  002146  B0D8               	btfsc	status,0,c
  6260  002148  2A04               	incf	(___awdiv@divisor+1)^0,f,c
  6261  00214A  0E01               	movlw	1
  6262  00214C  6E06               	movwf	___awdiv@sign^0,c
  6263  00214E                     l3052:
  6264  00214E  BE02               	btfsc	(___awdiv@dividend+1)^0,7,c
  6265  002150  EFAE  F010         	goto	u2050
  6266  002154  EFAC  F010         	goto	u2051
  6267  002158                     u2051:
  6268  002158  EFB4  F010         	goto	l3058
  6269  00215C                     u2050:
  6270  00215C  6C01               	negf	___awdiv@dividend^0,c
  6271  00215E  1E02               	comf	(___awdiv@dividend+1)^0,f,c
  6272  002160  B0D8               	btfsc	status,0,c
  6273  002162  2A02               	incf	(___awdiv@dividend+1)^0,f,c
  6274  002164  0E01               	movlw	1
  6275  002166  1A06               	xorwf	___awdiv@sign^0,f,c
  6276  002168                     l3058:
  6277  002168  0E00               	movlw	0
  6278  00216A  6E08               	movwf	(___awdiv@quotient+1)^0,c
  6279  00216C  0E00               	movlw	0
  6280  00216E  6E07               	movwf	___awdiv@quotient^0,c
  6281  002170  5003               	movf	___awdiv@divisor^0,w,c
  6282  002172  1004               	iorwf	(___awdiv@divisor+1)^0,w,c
  6283  002174  B4D8               	btfsc	status,2,c
  6284  002176  EFBF  F010         	goto	u2061
  6285  00217A  EFC1  F010         	goto	u2060
  6286  00217E                     u2061:
  6287  00217E  EFE9  F010         	goto	l3080
  6288  002182                     u2060:
  6289  002182  0E01               	movlw	1
  6290  002184  6E05               	movwf	___awdiv@counter^0,c
  6291  002186  EFC9  F010         	goto	l3066
  6292  00218A                     l3064:
  6293  00218A  90D8               	bcf	status,0,c
  6294  00218C  3603               	rlcf	___awdiv@divisor^0,f,c
  6295  00218E  3604               	rlcf	(___awdiv@divisor+1)^0,f,c
  6296  002190  2A05               	incf	___awdiv@counter^0,f,c
  6297  002192                     l3066:
  6298  002192  AE04               	btfss	(___awdiv@divisor+1)^0,7,c
  6299  002194  EFCE  F010         	goto	u2071
  6300  002198  EFD0  F010         	goto	u2070
  6301  00219C                     u2071:
  6302  00219C  EFC5  F010         	goto	l3064
  6303  0021A0                     u2070:
  6304  0021A0                     l3068:
  6305  0021A0  90D8               	bcf	status,0,c
  6306  0021A2  3607               	rlcf	___awdiv@quotient^0,f,c
  6307  0021A4  3608               	rlcf	(___awdiv@quotient+1)^0,f,c
  6308  0021A6  5003               	movf	___awdiv@divisor^0,w,c
  6309  0021A8  5C01               	subwf	___awdiv@dividend^0,w,c
  6310  0021AA  5004               	movf	(___awdiv@divisor+1)^0,w,c
  6311  0021AC  5802               	subwfb	(___awdiv@dividend+1)^0,w,c
  6312  0021AE  A0D8               	btfss	status,0,c
  6313  0021B0  EFDC  F010         	goto	u2081
  6314  0021B4  EFDE  F010         	goto	u2080
  6315  0021B8                     u2081:
  6316  0021B8  EFE3  F010         	goto	l3076
  6317  0021BC                     u2080:
  6318  0021BC  5003               	movf	___awdiv@divisor^0,w,c
  6319  0021BE  5E01               	subwf	___awdiv@dividend^0,f,c
  6320  0021C0  5004               	movf	(___awdiv@divisor+1)^0,w,c
  6321  0021C2  5A02               	subwfb	(___awdiv@dividend+1)^0,f,c
  6322  0021C4  8007               	bsf	___awdiv@quotient^0,0,c
  6323  0021C6                     l3076:
  6324  0021C6  90D8               	bcf	status,0,c
  6325  0021C8  3204               	rrcf	(___awdiv@divisor+1)^0,f,c
  6326  0021CA  3203               	rrcf	___awdiv@divisor^0,f,c
  6327  0021CC  2E05               	decfsz	___awdiv@counter^0,f,c
  6328  0021CE  EFD0  F010         	goto	l3068
  6329  0021D2                     l3080:
  6330  0021D2  5006               	movf	___awdiv@sign^0,w,c
  6331  0021D4  B4D8               	btfsc	status,2,c
  6332  0021D6  EFEF  F010         	goto	u2091
  6333  0021DA  EFF1  F010         	goto	u2090
  6334  0021DE                     u2091:
  6335  0021DE  EFF5  F010         	goto	l3084
  6336  0021E2                     u2090:
  6337  0021E2  6C07               	negf	___awdiv@quotient^0,c
  6338  0021E4  1E08               	comf	(___awdiv@quotient+1)^0,f,c
  6339  0021E6  B0D8               	btfsc	status,0,c
  6340  0021E8  2A08               	incf	(___awdiv@quotient+1)^0,f,c
  6341  0021EA                     l3084:
  6342  0021EA  C007  F001         	movff	___awdiv@quotient,?___awdiv
  6343  0021EE  C008  F002         	movff	___awdiv@quotient+1,?___awdiv+1
  6344  0021F2  0012               	return		;funcret
  6345  0021F4                     __end_of___awdiv:
  6346                           	callstack 0
  6347                           
  6348 ;; *************** function _change_pssd *****************
  6349 ;; Defined at:
  6350 ;;		line 4 in file "change_pssd.c"
  6351 ;; Parameters:    Size  Location     Type
  6352 ;;  key             1    wreg     unsigned char 
  6353 ;; Auto vars:     Size  Location     Type
  6354 ;;  key             1   18[COMRAM] unsigned char 
  6355 ;;  i               2   19[COMRAM] int 
  6356 ;; Return value:  Size  Location     Type
  6357 ;;                  1    wreg      unsigned char 
  6358 ;; Registers used:
  6359 ;;		wreg, fsr0l, fsr0h, fsr1l, fsr1h, fsr2l, fsr2h, status,2, status,0, tblptrl, tblptrh, tblptru, cstack
  6360 ;; Tracked objects:
  6361 ;;		On entry : 0/0
  6362 ;;		On exit  : 0/0
  6363 ;;		Unchanged: 0/0
  6364 ;; Data sizes:     COMRAM   BANK0   BANK1   BANK2   BANK3   BANK4   BANK5
  6365 ;;      Params:         0       0       0       0       0       0       0
  6366 ;;      Locals:         3       0       0       0       0       0       0
  6367 ;;      Temps:          2       0       0       0       0       0       0
  6368 ;;      Totals:         5       0       0       0       0       0       0
  6369 ;;Total ram usage:        5 bytes
  6370 ;; Hardware stack levels used: 1
  6371 ;; Hardware stack levels required when called: 2
  6372 ;; This function calls:
  6373 ;;		_clcd_print
  6374 ;;		_clcd_print_ch
  6375 ;;		_clcd_write
  6376 ;;		_strncmp
  6377 ;;		_write_to_eeprom
  6378 ;; This function is called by:
  6379 ;;		_main
  6380 ;; This function uses a non-reentrant model
  6381 ;;
  6382                           
  6383                           	psect	text39
  6384  0015AC                     __ptext39:
  6385                           	callstack 0
  6386  0015AC                     _change_pssd:
  6387                           	callstack 28
  6388                           
  6389                           ;incstack = 0
  6390                           ;change_pssd@key stored from wreg
  6391  0015AC  6E13               	movwf	change_pssd@key^0,c
  6392  0015AE                     
  6393                           ;change_pssd.c: 4: unsigned char change_pssd(unsigned char key);change_pssd.c: 5: {;chan
      +                          ge_pssd.c: 6:     clcd_print("Enter Password",(0x80 + (0)));
  6394  0015AE  0E51               	movlw	low STR_3
  6395  0015B0  6E03               	movwf	clcd_print@data^0,c
  6396  0015B2  0E06               	movlw	high STR_3
  6397  0015B4  6E04               	movwf	(clcd_print@data+1)^0,c
  6398  0015B6  0E80               	movlw	128
  6399  0015B8  6E05               	movwf	clcd_print@addr^0,c
  6400  0015BA  EC64  F013         	call	_clcd_print	;wreg free
  6401  0015BE                     
  6402                           ;change_pssd.c: 7:     if(i < 4 && flag)
  6403  0015BE  0E04               	movlw	4
  6404  0015C0  6059               	cpfslt	_i^0,c
  6405  0015C2  EFE5  F00A         	goto	u2791
  6406  0015C6  EFE7  F00A         	goto	u2790
  6407  0015CA                     u2791:
  6408  0015CA  EF72  F00B         	goto	l3628
  6409  0015CE                     u2790:
  6410  0015CE  0100               	movlb	0	; () banked
  6411  0015D0  51E5               	movf	_flag& (0+255),w,b
  6412  0015D2  B4D8               	btfsc	status,2,c
  6413  0015D4  EFEE  F00A         	goto	u2801
  6414  0015D8  EFF0  F00A         	goto	u2800
  6415  0015DC                     u2801:
  6416  0015DC  EF72  F00B         	goto	l3628
  6417  0015E0                     u2800:
  6418  0015E0                     
  6419                           ; BSR set to: 0
  6420                           ;change_pssd.c: 8:     {;change_pssd.c: 9:         if(++time6 < 150)
  6421  0015E0  4BC7               	infsnz	_time6& (0+255),f,b
  6422  0015E2  2BC8               	incf	(_time6+1)& (0+255),f,b
  6423  0015E4  BFC8               	btfsc	(_time6+1)& (0+255),7,b
  6424  0015E6  EF00  F00B         	goto	u2810
  6425  0015EA  51C8               	movf	(_time6+1)& (0+255),w,b
  6426  0015EC  E107               	bnz	u2811
  6427  0015EE  0E96               	movlw	150
  6428  0015F0  5DC7               	subwf	_time6& (0+255),w,b
  6429  0015F2  B0D8               	btfsc	status,0,c
  6430  0015F4  EFFE  F00A         	goto	u2811
  6431  0015F8  EF00  F00B         	goto	u2810
  6432  0015FC                     u2811:
  6433  0015FC  EF08  F00B         	goto	l3594
  6434  001600                     u2810:
  6435  001600                     
  6436                           ; BSR set to: 0
  6437                           ;change_pssd.c: 10:             clcd_print_ch('_',(0xC0 + (6+i)));
  6438  001600  5059               	movf	_i^0,w,c
  6439  001602  0FC6               	addlw	198
  6440  001604  6E0F               	movwf	clcd_print_ch@addr^0,c
  6441  001606  0E5F               	movlw	95
  6442  001608  ECF4  F014         	call	_clcd_print_ch
  6443  00160C  EF1F  F00B         	goto	l3600
  6444  001610                     l3594:
  6445                           
  6446                           ; BSR set to: 0
  6447  001610  0E2C               	movlw	44
  6448  001612  19C7               	xorwf	_time6& (0+255),w,b
  6449  001614  E106               	bnz	u2821
  6450  001616  05C8               	decf	(_time6+1)& (0+255),w,b
  6451  001618  A4D8               	btfss	status,2,c
  6452  00161A  EF11  F00B         	goto	u2821
  6453  00161E  EF13  F00B         	goto	u2820
  6454  001622                     u2821:
  6455  001622  EF19  F00B         	goto	l3598
  6456  001626                     u2820:
  6457  001626                     
  6458                           ; BSR set to: 0
  6459                           ;change_pssd.c: 12:             time6 = 0;
  6460  001626  0E00               	movlw	0
  6461  001628  6FC8               	movwf	(_time6+1)& (0+255),b
  6462  00162A  0E00               	movlw	0
  6463  00162C  6FC7               	movwf	_time6& (0+255),b
  6464  00162E  EF1F  F00B         	goto	l3600
  6465  001632                     l3598:
  6466                           
  6467                           ; BSR set to: 0
  6468                           ;change_pssd.c: 14:             clcd_print_ch(' ',(0xC0 + (6+i)));
  6469  001632  5059               	movf	_i^0,w,c
  6470  001634  0FC6               	addlw	198
  6471  001636  6E0F               	movwf	clcd_print_ch@addr^0,c
  6472  001638  0E20               	movlw	32
  6473  00163A  ECF4  F014         	call	_clcd_print_ch
  6474  00163E                     l3600:
  6475                           
  6476                           ;change_pssd.c: 15:         if(key == 11)
  6477  00163E  0E0B               	movlw	11
  6478  001640  1813               	xorwf	change_pssd@key^0,w,c
  6479  001642  A4D8               	btfss	status,2,c
  6480  001644  EF26  F00B         	goto	u2831
  6481  001648  EF28  F00B         	goto	u2830
  6482  00164C                     u2831:
  6483  00164C  EF39  F00B         	goto	l3608
  6484  001650                     u2830:
  6485  001650                     
  6486                           ;change_pssd.c: 16:         {;change_pssd.c: 17:             clcd_print_ch('*',(0xC0 + (
      +                          6+i)));
  6487  001650  5059               	movf	_i^0,w,c
  6488  001652  0FC6               	addlw	198
  6489  001654  6E0F               	movwf	clcd_print_ch@addr^0,c
  6490  001656  0E2A               	movlw	42
  6491  001658  ECF4  F014         	call	_clcd_print_ch
  6492  00165C                     
  6493                           ;change_pssd.c: 18:             pssd[i++] = '0';
  6494  00165C  0EDB               	movlw	low _pssd
  6495  00165E  2459               	addwf	_i^0,w,c
  6496  001660  6ED9               	movwf	fsr2l,c
  6497  001662  6ADA               	clrf	fsr2h,c
  6498  001664  0E00               	movlw	high _pssd
  6499  001666  22DA               	addwfc	fsr2h,f,c
  6500  001668  0E30               	movlw	48
  6501  00166A  6EDF               	movwf	indf2,c
  6502  00166C                     l3606:
  6503  00166C  2A59               	incf	_i^0,f,c
  6504                           
  6505                           ;change_pssd.c: 19:         }
  6506  00166E  EF52  F00B         	goto	l3616
  6507  001672                     l3608:
  6508  001672  0E0C               	movlw	12
  6509  001674  1813               	xorwf	change_pssd@key^0,w,c
  6510  001676  A4D8               	btfss	status,2,c
  6511  001678  EF40  F00B         	goto	u2841
  6512  00167C  EF42  F00B         	goto	u2840
  6513  001680                     u2841:
  6514  001680  EF52  F00B         	goto	l3616
  6515  001684                     u2840:
  6516  001684                     
  6517                           ;change_pssd.c: 21:         {;change_pssd.c: 22:             clcd_print_ch('*',(0xC0 + (
      +                          6+i)));
  6518  001684  5059               	movf	_i^0,w,c
  6519  001686  0FC6               	addlw	198
  6520  001688  6E0F               	movwf	clcd_print_ch@addr^0,c
  6521  00168A  0E2A               	movlw	42
  6522  00168C  ECF4  F014         	call	_clcd_print_ch
  6523  001690                     
  6524                           ;change_pssd.c: 23:             pssd[i++] = '1';
  6525  001690  0EDB               	movlw	low _pssd
  6526  001692  2459               	addwf	_i^0,w,c
  6527  001694  6ED9               	movwf	fsr2l,c
  6528  001696  6ADA               	clrf	fsr2h,c
  6529  001698  0E00               	movlw	high _pssd
  6530  00169A  22DA               	addwfc	fsr2h,f,c
  6531  00169C  0E31               	movlw	49
  6532  00169E  6EDF               	movwf	indf2,c
  6533  0016A0  EF36  F00B         	goto	l3606
  6534  0016A4                     l3616:
  6535                           
  6536                           ;change_pssd.c: 25:         if(i == 4)
  6537  0016A4  0E04               	movlw	4
  6538  0016A6  1859               	xorwf	_i^0,w,c
  6539  0016A8  A4D8               	btfss	status,2,c
  6540  0016AA  EF59  F00B         	goto	u2851
  6541  0016AE  EF5B  F00B         	goto	u2850
  6542  0016B2                     u2851:
  6543  0016B2  EF57  F00C         	goto	l3690
  6544  0016B6                     u2850:
  6545  0016B6                     
  6546                           ;change_pssd.c: 26:         {;change_pssd.c: 27:             clcd_write(0x01, 0);
  6547  0016B6  0E00               	movlw	0
  6548  0016B8  6E01               	movwf	clcd_write@control_bit^0,c
  6549  0016BA  0E01               	movlw	1
  6550  0016BC  EC51  F014         	call	_clcd_write
  6551  0016C0                     
  6552                           ;change_pssd.c: 28:             _delay((unsigned long)((500)*(20000000/4000000.0)));
  6553  0016C0  0E04               	movlw	4
  6554  0016C2  6E11               	movwf	??_change_pssd^0,c
  6555  0016C4  0E3E               	movlw	62
  6556  0016C6                     u3667:
  6557  0016C6  2EE8               	decfsz	wreg,f,c
  6558  0016C8  D7FE               	bra	u3667
  6559  0016CA  2E11               	decfsz	??_change_pssd^0,f,c
  6560  0016CC  D7FC               	bra	u3667
  6561  0016CE                     
  6562                           ;change_pssd.c: 29:             time6 = 0;
  6563  0016CE  0E00               	movlw	0
  6564  0016D0  0100               	movlb	0	; () banked
  6565  0016D2  6FC8               	movwf	(_time6+1)& (0+255),b
  6566  0016D4  0E00               	movlw	0
  6567  0016D6  6FC7               	movwf	_time6& (0+255),b
  6568  0016D8                     
  6569                           ; BSR set to: 0
  6570                           ;change_pssd.c: 30:             i = 0;
  6571  0016D8  0E00               	movlw	0
  6572  0016DA  6E59               	movwf	_i^0,c
  6573  0016DC                     
  6574                           ; BSR set to: 0
  6575                           ;change_pssd.c: 31:             flag = 0;
  6576  0016DC  0E00               	movlw	0
  6577  0016DE  6FE5               	movwf	_flag& (0+255),b
  6578  0016E0  EF57  F00C         	goto	l3690
  6579  0016E4                     l3628:
  6580  0016E4  0E04               	movlw	4
  6581  0016E6  6059               	cpfslt	_i^0,c
  6582  0016E8  EF78  F00B         	goto	u2861
  6583  0016EC  EF7A  F00B         	goto	u2860
  6584  0016F0                     u2861:
  6585  0016F0  EFE5  F00B         	goto	l3658
  6586  0016F4                     u2860:
  6587  0016F4                     
  6588                           ;change_pssd.c: 35:     {;change_pssd.c: 36:         if(++time6 < 150)
  6589  0016F4  0100               	movlb	0	; () banked
  6590  0016F6  4BC7               	infsnz	_time6& (0+255),f,b
  6591  0016F8  2BC8               	incf	(_time6+1)& (0+255),f,b
  6592  0016FA  BFC8               	btfsc	(_time6+1)& (0+255),7,b
  6593  0016FC  EF8B  F00B         	goto	u2870
  6594  001700  51C8               	movf	(_time6+1)& (0+255),w,b
  6595  001702  E107               	bnz	u2871
  6596  001704  0E96               	movlw	150
  6597  001706  5DC7               	subwf	_time6& (0+255),w,b
  6598  001708  B0D8               	btfsc	status,0,c
  6599  00170A  EF89  F00B         	goto	u2871
  6600  00170E  EF8B  F00B         	goto	u2870
  6601  001712                     u2871:
  6602  001712  EF93  F00B         	goto	l3634
  6603  001716                     u2870:
  6604  001716                     
  6605                           ; BSR set to: 0
  6606                           ;change_pssd.c: 37:             clcd_print_ch('_',(0xC0 + (6+i)));
  6607  001716  5059               	movf	_i^0,w,c
  6608  001718  0FC6               	addlw	198
  6609  00171A  6E0F               	movwf	clcd_print_ch@addr^0,c
  6610  00171C  0E5F               	movlw	95
  6611  00171E  ECF4  F014         	call	_clcd_print_ch
  6612  001722  EFAA  F00B         	goto	l3640
  6613  001726                     l3634:
  6614                           
  6615                           ; BSR set to: 0
  6616  001726  0E2C               	movlw	44
  6617  001728  19C7               	xorwf	_time6& (0+255),w,b
  6618  00172A  E106               	bnz	u2881
  6619  00172C  05C8               	decf	(_time6+1)& (0+255),w,b
  6620  00172E  A4D8               	btfss	status,2,c
  6621  001730  EF9C  F00B         	goto	u2881
  6622  001734  EF9E  F00B         	goto	u2880
  6623  001738                     u2881:
  6624  001738  EFA4  F00B         	goto	l3638
  6625  00173C                     u2880:
  6626  00173C                     
  6627                           ; BSR set to: 0
  6628                           ;change_pssd.c: 39:             time6 = 0;
  6629  00173C  0E00               	movlw	0
  6630  00173E  6FC8               	movwf	(_time6+1)& (0+255),b
  6631  001740  0E00               	movlw	0
  6632  001742  6FC7               	movwf	_time6& (0+255),b
  6633  001744  EFAA  F00B         	goto	l3640
  6634  001748                     l3638:
  6635                           
  6636                           ; BSR set to: 0
  6637                           ;change_pssd.c: 41:             clcd_print_ch(' ',(0xC0 + (6+i)));
  6638  001748  5059               	movf	_i^0,w,c
  6639  00174A  0FC6               	addlw	198
  6640  00174C  6E0F               	movwf	clcd_print_ch@addr^0,c
  6641  00174E  0E20               	movlw	32
  6642  001750  ECF4  F014         	call	_clcd_print_ch
  6643  001754                     l3640:
  6644                           
  6645                           ;change_pssd.c: 42:         clcd_print("Renter Password",(0x80 + (0)));
  6646  001754  0E23               	movlw	low STR_15
  6647  001756  6E03               	movwf	clcd_print@data^0,c
  6648  001758  0E06               	movlw	high STR_15
  6649  00175A  6E04               	movwf	(clcd_print@data+1)^0,c
  6650  00175C  0E80               	movlw	128
  6651  00175E  6E05               	movwf	clcd_print@addr^0,c
  6652  001760  EC64  F013         	call	_clcd_print	;wreg free
  6653  001764                     
  6654                           ;change_pssd.c: 43:         if(key == 11)
  6655  001764  0E0B               	movlw	11
  6656  001766  1813               	xorwf	change_pssd@key^0,w,c
  6657  001768  A4D8               	btfss	status,2,c
  6658  00176A  EFB9  F00B         	goto	u2891
  6659  00176E  EFBB  F00B         	goto	u2890
  6660  001772                     u2891:
  6661  001772  EFCC  F00B         	goto	l3650
  6662  001776                     u2890:
  6663  001776                     
  6664                           ;change_pssd.c: 44:         {;change_pssd.c: 45:             clcd_print_ch('*',(0xC0 + (
      +                          6+i)));
  6665  001776  5059               	movf	_i^0,w,c
  6666  001778  0FC6               	addlw	198
  6667  00177A  6E0F               	movwf	clcd_print_ch@addr^0,c
  6668  00177C  0E2A               	movlw	42
  6669  00177E  ECF4  F014         	call	_clcd_print_ch
  6670  001782                     
  6671                           ;change_pssd.c: 46:             r_pssd[i++] = '0';
  6672  001782  0ED6               	movlw	low _r_pssd
  6673  001784  2459               	addwf	_i^0,w,c
  6674  001786  6ED9               	movwf	fsr2l,c
  6675  001788  6ADA               	clrf	fsr2h,c
  6676  00178A  0E00               	movlw	high _r_pssd
  6677  00178C  22DA               	addwfc	fsr2h,f,c
  6678  00178E  0E30               	movlw	48
  6679  001790  6EDF               	movwf	indf2,c
  6680  001792                     l3648:
  6681  001792  2A59               	incf	_i^0,f,c
  6682                           
  6683                           ;change_pssd.c: 47:         }
  6684  001794  EF57  F00C         	goto	l3690
  6685  001798                     l3650:
  6686  001798  0E0C               	movlw	12
  6687  00179A  1813               	xorwf	change_pssd@key^0,w,c
  6688  00179C  A4D8               	btfss	status,2,c
  6689  00179E  EFD3  F00B         	goto	u2901
  6690  0017A2  EFD5  F00B         	goto	u2900
  6691  0017A6                     u2901:
  6692  0017A6  EF57  F00C         	goto	l3690
  6693  0017AA                     u2900:
  6694  0017AA                     
  6695                           ;change_pssd.c: 49:         {;change_pssd.c: 50:             clcd_print_ch('*',(0xC0 + (
      +                          6+i)));
  6696  0017AA  5059               	movf	_i^0,w,c
  6697  0017AC  0FC6               	addlw	198
  6698  0017AE  6E0F               	movwf	clcd_print_ch@addr^0,c
  6699  0017B0  0E2A               	movlw	42
  6700  0017B2  ECF4  F014         	call	_clcd_print_ch
  6701  0017B6                     
  6702                           ;change_pssd.c: 51:             r_pssd[i++] = '1';
  6703  0017B6  0ED6               	movlw	low _r_pssd
  6704  0017B8  2459               	addwf	_i^0,w,c
  6705  0017BA  6ED9               	movwf	fsr2l,c
  6706  0017BC  6ADA               	clrf	fsr2h,c
  6707  0017BE  0E00               	movlw	high _r_pssd
  6708  0017C0  22DA               	addwfc	fsr2h,f,c
  6709  0017C2  0E31               	movlw	49
  6710  0017C4  6EDF               	movwf	indf2,c
  6711  0017C6  EFC9  F00B         	goto	l3648
  6712  0017CA                     l3658:
  6713                           
  6714                           ;change_pssd.c: 55:     {;change_pssd.c: 56:         i = 0;
  6715  0017CA  0E00               	movlw	0
  6716  0017CC  6E59               	movwf	_i^0,c
  6717                           
  6718                           ;change_pssd.c: 57:         flag = 1;
  6719  0017CE  0E01               	movlw	1
  6720  0017D0  0100               	movlb	0	; () banked
  6721  0017D2  6FE5               	movwf	_flag& (0+255),b
  6722  0017D4                     
  6723                           ; BSR set to: 0
  6724                           ;change_pssd.c: 58:         clcd_write(0x01, 0);
  6725  0017D4  0E00               	movlw	0
  6726  0017D6  6E01               	movwf	clcd_write@control_bit^0,c
  6727  0017D8  0E01               	movlw	1
  6728  0017DA  EC51  F014         	call	_clcd_write
  6729  0017DE                     
  6730                           ;change_pssd.c: 59:         _delay((unsigned long)((500)*(20000000/4000000.0)));
  6731  0017DE  0E04               	movlw	4
  6732  0017E0  6E11               	movwf	??_change_pssd^0,c
  6733  0017E2  0E3E               	movlw	62
  6734  0017E4                     u3677:
  6735  0017E4  2EE8               	decfsz	wreg,f,c
  6736  0017E6  D7FE               	bra	u3677
  6737  0017E8  2E11               	decfsz	??_change_pssd^0,f,c
  6738  0017EA  D7FC               	bra	u3677
  6739  0017EC                     
  6740                           ;change_pssd.c: 60:         if(!strncmp(pssd,r_pssd,4))
  6741  0017EC  0EDB               	movlw	low _pssd
  6742  0017EE  6E01               	movwf	strncmp@_l^0,c
  6743  0017F0  0E00               	movlw	high _pssd
  6744  0017F2  6E02               	movwf	(strncmp@_l+1)^0,c
  6745  0017F4  0ED6               	movlw	low _r_pssd
  6746  0017F6  6E03               	movwf	strncmp@_r^0,c
  6747  0017F8  0E00               	movlw	high _r_pssd
  6748  0017FA  6E04               	movwf	(strncmp@_r+1)^0,c
  6749  0017FC  0E00               	movlw	0
  6750  0017FE  6E06               	movwf	(strncmp@n+1)^0,c
  6751  001800  0E04               	movlw	4
  6752  001802  6E05               	movwf	strncmp@n^0,c
  6753  001804  ECCD  F00F         	call	_strncmp	;wreg free
  6754  001808  5001               	movf	?_strncmp^0,w,c
  6755  00180A  1002               	iorwf	(?_strncmp+1)^0,w,c
  6756  00180C  A4D8               	btfss	status,2,c
  6757  00180E  EF0B  F00C         	goto	u2911
  6758  001812  EF0D  F00C         	goto	u2910
  6759  001816                     u2911:
  6760  001816  EF43  F00C         	goto	l3686
  6761  00181A                     u2910:
  6762  00181A                     
  6763                           ;change_pssd.c: 61:         {;change_pssd.c: 62:             clcd_print("Password Change
      +                          d",(0x80 + (0)));
  6764  00181A  0E01               	movlw	low STR_16
  6765  00181C  6E03               	movwf	clcd_print@data^0,c
  6766  00181E  0E06               	movlw	high STR_16
  6767  001820  6E04               	movwf	(clcd_print@data+1)^0,c
  6768  001822  0E80               	movlw	128
  6769  001824  6E05               	movwf	clcd_print@addr^0,c
  6770  001826  EC64  F013         	call	_clcd_print	;wreg free
  6771  00182A                     
  6772                           ;change_pssd.c: 63:             for(int i=161; i<165 ; i++)
  6773  00182A  0E00               	movlw	0
  6774  00182C  6E15               	movwf	(change_pssd@i+1)^0,c
  6775  00182E  0EA1               	movlw	161
  6776  001830  6E14               	movwf	change_pssd@i^0,c
  6777  001832                     l3674:
  6778                           
  6779                           ;change_pssd.c: 64:             {;change_pssd.c: 65:                 write_to_eeprom(i,p
      +                          ssd[i-161]);
  6780  001832  0E3A               	movlw	low (_pssd+65375)
  6781  001834  2414               	addwf	change_pssd@i^0,w,c
  6782  001836  6ED9               	movwf	fsr2l,c
  6783  001838  0E00               	movlw	high (_pssd+65375)
  6784  00183A  2015               	addwfc	(change_pssd@i+1)^0,w,c
  6785  00183C  6EDA               	movwf	fsr2h,c
  6786  00183E  50DF               	movf	indf2,w,c
  6787  001840  6E01               	movwf	write_to_eeprom@data^0,c
  6788  001842  5014               	movf	change_pssd@i^0,w,c
  6789  001844  EC6E  F014         	call	_write_to_eeprom
  6790  001848                     
  6791                           ;change_pssd.c: 66:             }
  6792  001848  4A14               	infsnz	change_pssd@i^0,f,c
  6793  00184A  2A15               	incf	(change_pssd@i+1)^0,f,c
  6794  00184C  BE15               	btfsc	(change_pssd@i+1)^0,7,c
  6795  00184E  EF32  F00C         	goto	u2921
  6796  001852  5015               	movf	(change_pssd@i+1)^0,w,c
  6797  001854  E109               	bnz	u2920
  6798  001856  0EA5               	movlw	165
  6799  001858  5C14               	subwf	change_pssd@i^0,w,c
  6800  00185A  A0D8               	btfss	status,0,c
  6801  00185C  EF32  F00C         	goto	u2921
  6802  001860  EF34  F00C         	goto	u2920
  6803  001864                     u2921:
  6804  001864  EF19  F00C         	goto	l3674
  6805  001868                     u2920:
  6806  001868                     
  6807                           ;change_pssd.c: 67:             _delay((unsigned long)((500)*(20000000/4000.0)));
  6808  001868  0E0D               	movlw	13
  6809  00186A  6E12               	movwf	(??_change_pssd+1)^0,c
  6810  00186C  0EAF               	movlw	175
  6811  00186E  6E11               	movwf	??_change_pssd^0,c
  6812  001870  0EB6               	movlw	182
  6813  001872                     u3687:
  6814  001872  2EE8               	decfsz	wreg,f,c
  6815  001874  D7FE               	bra	u3687
  6816  001876  2E11               	decfsz	??_change_pssd^0,f,c
  6817  001878  D7FC               	bra	u3687
  6818  00187A  2E12               	decfsz	(??_change_pssd+1)^0,f,c
  6819  00187C  D7FA               	bra	u3687
  6820  00187E  D000               	nop2	
  6821                           
  6822                           ;change_pssd.c: 68:             return 1;
  6823  001880  0E01               	movlw	1
  6824  001882  EF58  F00C         	goto	l636
  6825  001886                     l3686:
  6826                           
  6827                           ;change_pssd.c: 71:         {;change_pssd.c: 72:             clcd_print("Pssd Not Match"
      +                          ,(0x80 + (0)));
  6828  001886  0E33               	movlw	low STR_17
  6829  001888  6E03               	movwf	clcd_print@data^0,c
  6830  00188A  0E06               	movlw	high STR_17
  6831  00188C  6E04               	movwf	(clcd_print@data+1)^0,c
  6832  00188E  0E80               	movlw	128
  6833  001890  6E05               	movwf	clcd_print@addr^0,c
  6834  001892  EC64  F013         	call	_clcd_print	;wreg free
  6835  001896                     
  6836                           ;change_pssd.c: 74:         _delay((unsigned long)((500)*(20000000/4000.0)));
  6837  001896  0E0D               	movlw	13
  6838  001898  6E12               	movwf	(??_change_pssd+1)^0,c
  6839  00189A  0EAF               	movlw	175
  6840  00189C  6E11               	movwf	??_change_pssd^0,c
  6841  00189E  0EB6               	movlw	182
  6842  0018A0                     u3697:
  6843  0018A0  2EE8               	decfsz	wreg,f,c
  6844  0018A2  D7FE               	bra	u3697
  6845  0018A4  2E11               	decfsz	??_change_pssd^0,f,c
  6846  0018A6  D7FC               	bra	u3697
  6847  0018A8  2E12               	decfsz	(??_change_pssd+1)^0,f,c
  6848  0018AA  D7FA               	bra	u3697
  6849  0018AC  D000               	nop2	
  6850  0018AE                     l3690:
  6851                           
  6852                           ;change_pssd.c: 76:     return 8;
  6853  0018AE  0E08               	movlw	8
  6854  0018B0                     l636:
  6855  0018B0  0012               	return		;funcret
  6856  0018B2                     __end_of_change_pssd:
  6857                           	callstack 0
  6858                           
  6859 ;; *************** function _write_to_eeprom *****************
  6860 ;; Defined at:
  6861 ;;		line 3 in file "eeprom.c"
  6862 ;; Parameters:    Size  Location     Type
  6863 ;;  address         1    wreg     unsigned char 
  6864 ;;  data            1    0[COMRAM] unsigned char 
  6865 ;; Auto vars:     Size  Location     Type
  6866 ;;  address         1    1[COMRAM] unsigned char 
  6867 ;; Return value:  Size  Location     Type
  6868 ;;                  1    wreg      void 
  6869 ;; Registers used:
  6870 ;;		wreg, status,2
  6871 ;; Tracked objects:
  6872 ;;		On entry : 0/0
  6873 ;;		On exit  : 0/0
  6874 ;;		Unchanged: 0/0
  6875 ;; Data sizes:     COMRAM   BANK0   BANK1   BANK2   BANK3   BANK4   BANK5
  6876 ;;      Params:         1       0       0       0       0       0       0
  6877 ;;      Locals:         1       0       0       0       0       0       0
  6878 ;;      Temps:          0       0       0       0       0       0       0
  6879 ;;      Totals:         2       0       0       0       0       0       0
  6880 ;;Total ram usage:        2 bytes
  6881 ;; Hardware stack levels used: 1
  6882 ;; This function calls:
  6883 ;;		Nothing
  6884 ;; This function is called by:
  6885 ;;		_main
  6886 ;;		_change_pssd
  6887 ;; This function uses a non-reentrant model
  6888 ;;
  6889                           
  6890                           	psect	text40
  6891  0028DC                     __ptext40:
  6892                           	callstack 0
  6893  0028DC                     _write_to_eeprom:
  6894                           	callstack 30
  6895                           
  6896                           ;incstack = 0
  6897                           ;write_to_eeprom@address stored from wreg
  6898  0028DC  6E02               	movwf	write_to_eeprom@address^0,c
  6899  0028DE                     
  6900                           ;eeprom.c: 3: void write_to_eeprom(unsigned char address, unsigned char data);eeprom.c: 
      +                          4: {;eeprom.c: 5:     EEADR = address;
  6901  0028DE  C002  FFA9         	movff	write_to_eeprom@address,4009	;volatile
  6902  0028E2                     
  6903                           ;eeprom.c: 6:     EEDATA = data;
  6904  0028E2  C001  FFA8         	movff	write_to_eeprom@data,4008	;volatile
  6905  0028E6                     
  6906                           ;eeprom.c: 7:     EEPGD = 0;
  6907  0028E6  9EA6               	bcf	4006,7,c	;volsfr
  6908  0028E8                     
  6909                           ;eeprom.c: 8:     CFGS = 0;
  6910  0028E8  9CA6               	bcf	4006,6,c	;volsfr
  6911  0028EA                     
  6912                           ;eeprom.c: 9:     WREN = 1;
  6913  0028EA  84A6               	bsf	4006,2,c	;volsfr
  6914  0028EC                     
  6915                           ;eeprom.c: 11:     GIE = 0;
  6916  0028EC  9EF2               	bcf	4082,7,c	;volatile
  6917  0028EE                     
  6918                           ;eeprom.c: 12:     EECON2 = 0x55;
  6919  0028EE  0E55               	movlw	85
  6920  0028F0  6EA7               	movwf	167,c	;volsfr
  6921  0028F2                     
  6922                           ;eeprom.c: 13:     EECON2 = 0xAA;
  6923  0028F2  0EAA               	movlw	170
  6924  0028F4  6EA7               	movwf	167,c	;volsfr
  6925  0028F6                     
  6926                           ;eeprom.c: 15:     WR = 1;
  6927  0028F6  82A6               	bsf	4006,1,c	;volsfr
  6928  0028F8                     
  6929                           ;eeprom.c: 16:     GIE = 1;
  6930  0028F8  8EF2               	bsf	4082,7,c	;volatile
  6931  0028FA                     l364:
  6932  0028FA  B2A6               	btfsc	4006,1,c	;volsfr
  6933  0028FC  EF82  F014         	goto	u1881
  6934  002900  EF84  F014         	goto	u1880
  6935  002904                     u1881:
  6936  002904  EF7D  F014         	goto	l364
  6937  002908                     u1880:
  6938  002908  0012               	return		;funcret
  6939  00290A                     __end_of_write_to_eeprom:
  6940                           	callstack 0
  6941                           
  6942 ;; *************** function _strncmp *****************
  6943 ;; Defined at:
  6944 ;;		line 3 in file "C:\Program Files\Microchip\xc8\v2.36\pic\sources\c99\common\strncmp.c"
  6945 ;; Parameters:    Size  Location     Type
  6946 ;;  _l              2    0[COMRAM] PTR const unsigned char 
  6947 ;;		 -> pssd(5), check_pssd@s_pssd(5), 
  6948 ;;  _r              2    2[COMRAM] PTR const unsigned char 
  6949 ;;		 -> r_pssd(5), check_pssd@pssd(5), 
  6950 ;;  n               2    4[COMRAM] unsigned int 
  6951 ;; Auto vars:     Size  Location     Type
  6952 ;;  r               2   10[COMRAM] PTR const unsigned char 
  6953 ;;		 -> r_pssd(5), check_pssd@pssd(5), 
  6954 ;;  l               2    8[COMRAM] PTR const unsigned char 
  6955 ;;		 -> pssd(5), check_pssd@s_pssd(5), 
  6956 ;; Return value:  Size  Location     Type
  6957 ;;                  2    0[COMRAM] int 
  6958 ;; Registers used:
  6959 ;;		wreg, fsr1l, fsr1h, fsr2l, fsr2h, status,2, status,0
  6960 ;; Tracked objects:
  6961 ;;		On entry : 0/0
  6962 ;;		On exit  : 0/0
  6963 ;;		Unchanged: 0/0
  6964 ;; Data sizes:     COMRAM   BANK0   BANK1   BANK2   BANK3   BANK4   BANK5
  6965 ;;      Params:         6       0       0       0       0       0       0
  6966 ;;      Locals:         4       0       0       0       0       0       0
  6967 ;;      Temps:          2       0       0       0       0       0       0
  6968 ;;      Totals:        12       0       0       0       0       0       0
  6969 ;;Total ram usage:       12 bytes
  6970 ;; Hardware stack levels used: 1
  6971 ;; This function calls:
  6972 ;;		Nothing
  6973 ;; This function is called by:
  6974 ;;		_check_pssd
  6975 ;;		_change_pssd
  6976 ;; This function uses a non-reentrant model
  6977 ;;
  6978                           
  6979                           	psect	text41
  6980  001F9A                     __ptext41:
  6981                           	callstack 0
  6982  001F9A                     _strncmp:
  6983                           	callstack 29
  6984  001F9A  C001  F009         	movff	strncmp@_l,strncmp@l
  6985  001F9E  C002  F00A         	movff	strncmp@_l+1,strncmp@l+1
  6986  001FA2  C003  F00B         	movff	strncmp@_r,strncmp@r
  6987  001FA6  C004  F00C         	movff	strncmp@_r+1,strncmp@r+1
  6988  001FAA  0605               	decf	strncmp@n^0,f,c
  6989  001FAC  A0D8               	btfss	status,0,c
  6990  001FAE  0606               	decf	(strncmp@n+1)^0,f,c
  6991  001FB0  2805               	incf	strncmp@n^0,w,c
  6992  001FB2  E106               	bnz	u1941
  6993  001FB4  2806               	incf	(strncmp@n+1)^0,w,c
  6994  001FB6  A4D8               	btfss	status,2,c
  6995  001FB8  EFE0  F00F         	goto	u1941
  6996  001FBC  EFE2  F00F         	goto	u1940
  6997  001FC0                     u1941:
  6998  001FC0  EFEF  F00F         	goto	l2976
  6999  001FC4                     u1940:
  7000  001FC4  0E00               	movlw	0
  7001  001FC6  6E02               	movwf	(?_strncmp+1)^0,c
  7002  001FC8  0E00               	movlw	0
  7003  001FCA  6E01               	movwf	?_strncmp^0,c
  7004  001FCC  EF33  F010         	goto	l1315
  7005  001FD0                     l2974:
  7006  001FD0  4A09               	infsnz	strncmp@l^0,f,c
  7007  001FD2  2A0A               	incf	(strncmp@l+1)^0,f,c
  7008  001FD4  4A0B               	infsnz	strncmp@r^0,f,c
  7009  001FD6  2A0C               	incf	(strncmp@r+1)^0,f,c
  7010  001FD8  0605               	decf	strncmp@n^0,f,c
  7011  001FDA  A0D8               	btfss	status,0,c
  7012  001FDC  0606               	decf	(strncmp@n+1)^0,f,c
  7013  001FDE                     l2976:
  7014  001FDE  C009  FFD9         	movff	strncmp@l,fsr2l
  7015  001FE2  C00A  FFDA         	movff	strncmp@l+1,fsr2h
  7016  001FE6  50DF               	movf	indf2,w,c
  7017  001FE8  B4D8               	btfsc	status,2,c
  7018  001FEA  EFF9  F00F         	goto	u1951
  7019  001FEE  EFFB  F00F         	goto	u1950
  7020  001FF2                     u1951:
  7021  001FF2  EF21  F010         	goto	l2984
  7022  001FF6                     u1950:
  7023  001FF6  C00B  FFD9         	movff	strncmp@r,fsr2l
  7024  001FFA  C00C  FFDA         	movff	strncmp@r+1,fsr2h
  7025  001FFE  50DF               	movf	indf2,w,c
  7026  002000  B4D8               	btfsc	status,2,c
  7027  002002  EF05  F010         	goto	u1961
  7028  002006  EF07  F010         	goto	u1960
  7029  00200A                     u1961:
  7030  00200A  EF21  F010         	goto	l2984
  7031  00200E                     u1960:
  7032  00200E  5005               	movf	strncmp@n^0,w,c
  7033  002010  1006               	iorwf	(strncmp@n+1)^0,w,c
  7034  002012  B4D8               	btfsc	status,2,c
  7035  002014  EF0E  F010         	goto	u1971
  7036  002018  EF10  F010         	goto	u1970
  7037  00201C                     u1971:
  7038  00201C  EF21  F010         	goto	l2984
  7039  002020                     u1970:
  7040  002020  C00B  FFD9         	movff	strncmp@r,fsr2l
  7041  002024  C00C  FFDA         	movff	strncmp@r+1,fsr2h
  7042  002028  C009  FFE1         	movff	strncmp@l,fsr1l
  7043  00202C  C00A  FFE2         	movff	strncmp@l+1,fsr1h
  7044  002030  50DE               	movf	postinc2,w,c
  7045  002032  18E6               	xorwf	postinc1,w,c
  7046  002034  B4D8               	btfsc	status,2,c
  7047  002036  EF1F  F010         	goto	u1981
  7048  00203A  EF21  F010         	goto	u1980
  7049  00203E                     u1981:
  7050  00203E  EFE8  F00F         	goto	l2974
  7051  002042                     u1980:
  7052  002042                     l2984:
  7053  002042  C009  FFD9         	movff	strncmp@l,fsr2l
  7054  002046  C00A  FFDA         	movff	strncmp@l+1,fsr2h
  7055  00204A  50DF               	movf	indf2,w,c
  7056  00204C  6E07               	movwf	??_strncmp^0,c
  7057  00204E  C00B  FFD9         	movff	strncmp@r,fsr2l
  7058  002052  C00C  FFDA         	movff	strncmp@r+1,fsr2h
  7059  002056  50DF               	movf	indf2,w,c
  7060  002058  6E08               	movwf	(??_strncmp+1)^0,c
  7061  00205A  5008               	movf	(??_strncmp+1)^0,w,c
  7062  00205C  5C07               	subwf	??_strncmp^0,w,c
  7063  00205E  6E01               	movwf	?_strncmp^0,c
  7064  002060  6A02               	clrf	(?_strncmp+1)^0,c
  7065  002062  A0D8               	btfss	status,0,c
  7066  002064  0602               	decf	(?_strncmp+1)^0,f,c
  7067  002066                     l1315:
  7068  002066  0012               	return		;funcret
  7069  002068                     __end_of_strncmp:
  7070                           	callstack 0
  7071                           
  7072 ;; *************** function _clcd_print_ch *****************
  7073 ;; Defined at:
  7074 ;;		line 65 in file "clcd.c"
  7075 ;; Parameters:    Size  Location     Type
  7076 ;;  data            1    wreg     unsigned char 
  7077 ;;  addr            1   14[COMRAM] unsigned char 
  7078 ;; Auto vars:     Size  Location     Type
  7079 ;;  data            1   15[COMRAM] unsigned char 
  7080 ;; Return value:  Size  Location     Type
  7081 ;;                  1    wreg      void 
  7082 ;; Registers used:
  7083 ;;		wreg, status,2, cstack
  7084 ;; Tracked objects:
  7085 ;;		On entry : 0/0
  7086 ;;		On exit  : 0/0
  7087 ;;		Unchanged: 0/0
  7088 ;; Data sizes:     COMRAM   BANK0   BANK1   BANK2   BANK3   BANK4   BANK5
  7089 ;;      Params:         1       0       0       0       0       0       0
  7090 ;;      Locals:         1       0       0       0       0       0       0
  7091 ;;      Temps:          0       0       0       0       0       0       0
  7092 ;;      Totals:         2       0       0       0       0       0       0
  7093 ;;Total ram usage:        2 bytes
  7094 ;; Hardware stack levels used: 1
  7095 ;; Hardware stack levels required when called: 1
  7096 ;; This function calls:
  7097 ;;		_clcd_write
  7098 ;; This function is called by:
  7099 ;;		_main
  7100 ;;		_display
  7101 ;;		_check_pssd
  7102 ;;		_login_screen
  7103 ;;		_set_time
  7104 ;;		_change_pssd
  7105 ;; This function uses a non-reentrant model
  7106 ;;
  7107                           
  7108                           	psect	text42
  7109  0029E8                     __ptext42:
  7110                           	callstack 0
  7111  0029E8                     _clcd_print_ch:
  7112                           	callstack 28
  7113                           
  7114                           ;incstack = 0
  7115                           ;clcd_print_ch@data stored from wreg
  7116  0029E8  6E10               	movwf	clcd_print_ch@data^0,c
  7117  0029EA                     
  7118                           ;clcd.c: 65: void clcd_print_ch(unsigned char data, unsigned char addr);clcd.c: 66: {;cl
      +                          cd.c: 67:     clcd_write(addr,0);
  7119  0029EA  0E00               	movlw	0
  7120  0029EC  6E01               	movwf	clcd_write@control_bit^0,c
  7121  0029EE  500F               	movf	clcd_print_ch@addr^0,w,c
  7122  0029F0  EC51  F014         	call	_clcd_write
  7123                           
  7124                           ;clcd.c: 68:     clcd_write(data,1);
  7125  0029F4  0E01               	movlw	1
  7126  0029F6  6E01               	movwf	clcd_write@control_bit^0,c
  7127  0029F8  5010               	movf	clcd_print_ch@data^0,w,c
  7128  0029FA  EC51  F014         	call	_clcd_write
  7129  0029FE  0012               	return		;funcret
  7130  002A00                     __end_of_clcd_print_ch:
  7131                           	callstack 0
  7132                           
  7133 ;; *************** function _clcd_print *****************
  7134 ;; Defined at:
  7135 ;;		line 56 in file "clcd.c"
  7136 ;; Parameters:    Size  Location     Type
  7137 ;;  data            2    2[COMRAM] PTR unsigned char 
  7138 ;;		 -> STR_17(15), STR_16(17), STR_15(16), STR_14(15), 
  7139 ;;		 -> STR_13(14), STR_12(8), STR_11(8), STR_10(9), 
  7140 ;;		 -> STR_9(8), STR_8(8), view_log@ch(16), login_screen@arr(85), 
  7141 ;;		 -> STR_7(12), STR_6(13), STR_5(15), STR_4(14), 
  7142 ;;		 -> STR_3(15), time(9), STR_2(17), STR_1(17), 
  7143 ;;		 -> main@ev(24), 
  7144 ;;  addr            1    4[COMRAM] unsigned char 
  7145 ;; Auto vars:     Size  Location     Type
  7146 ;;		None
  7147 ;; Return value:  Size  Location     Type
  7148 ;;                  1    wreg      void 
  7149 ;; Registers used:
  7150 ;;		wreg, fsr0l, fsr0h, status,2, status,0, tblptrl, tblptrh, tblptru, cstack
  7151 ;; Tracked objects:
  7152 ;;		On entry : 0/0
  7153 ;;		On exit  : 0/0
  7154 ;;		Unchanged: 0/0
  7155 ;; Data sizes:     COMRAM   BANK0   BANK1   BANK2   BANK3   BANK4   BANK5
  7156 ;;      Params:         3       0       0       0       0       0       0
  7157 ;;      Locals:         0       0       0       0       0       0       0
  7158 ;;      Temps:          0       0       0       0       0       0       0
  7159 ;;      Totals:         3       0       0       0       0       0       0
  7160 ;;Total ram usage:        3 bytes
  7161 ;; Hardware stack levels used: 1
  7162 ;; Hardware stack levels required when called: 1
  7163 ;; This function calls:
  7164 ;;		_clcd_write
  7165 ;; This function is called by:
  7166 ;;		_main
  7167 ;;		_read_rtc
  7168 ;;		_display
  7169 ;;		_check_pssd
  7170 ;;		_login_screen
  7171 ;;		_view_log
  7172 ;;		_clear_log
  7173 ;;		_download_log
  7174 ;;		_change_pssd
  7175 ;; This function uses a non-reentrant model
  7176 ;;
  7177                           
  7178                           	psect	text43
  7179  0026C8                     __ptext43:
  7180                           	callstack 0
  7181  0026C8                     _clcd_print:
  7182                           	callstack 28
  7183  0026C8                     
  7184                           ;clcd.c: 56: void clcd_print(unsigned char *data, unsigned char addr);clcd.c: 57: {;clcd
      +                          .c: 58:     clcd_write(addr,0);
  7185  0026C8  0E00               	movlw	0
  7186  0026CA  6E01               	movwf	clcd_write@control_bit^0,c
  7187  0026CC  5005               	movf	clcd_print@addr^0,w,c
  7188  0026CE  EC51  F014         	call	_clcd_write
  7189                           
  7190                           ;clcd.c: 59:     while(*data)
  7191  0026D2  EF81  F013         	goto	l2752
  7192  0026D6                     l2748:
  7193                           
  7194                           ;clcd.c: 60:     {;clcd.c: 61:        clcd_write(*data++,1);
  7195  0026D6  0E01               	movlw	1
  7196  0026D8  6E01               	movwf	clcd_write@control_bit^0,c
  7197  0026DA  C003  FFF6         	movff	clcd_print@data,tblptrl
  7198  0026DE  C004  FFF7         	movff	clcd_print@data+1,tblptrh
  7199  0026E2  6AF8               	clrf	tblptru,c
  7200  0026E4  0E05               	movlw	(high __ramtop+-1)
  7201  0026E6  64F7               	cpfsgt	tblptrh,c
  7202  0026E8  D003               	bra	u1797
  7203  0026EA  0008               	tblrd		*
  7204  0026EC  50F5               	movf	tablat,w,c
  7205  0026EE  D005               	bra	u1790
  7206  0026F0                     u1797:
  7207  0026F0  CFF6 FFE9          	movff	tblptrl,fsr0l
  7208  0026F4  CFF7 FFEA          	movff	tblptrh,fsr0h
  7209  0026F8  50EF               	movf	indf0,w,c
  7210  0026FA                     u1790:
  7211  0026FA  EC51  F014         	call	_clcd_write
  7212  0026FE  4A03               	infsnz	clcd_print@data^0,f,c
  7213  002700  2A04               	incf	(clcd_print@data+1)^0,f,c
  7214  002702                     l2752:
  7215                           
  7216                           ;clcd.c: 59:     while(*data)
  7217  002702  C003  FFF6         	movff	clcd_print@data,tblptrl
  7218  002706  C004  FFF7         	movff	clcd_print@data+1,tblptrh
  7219  00270A  6AF8               	clrf	tblptru,c
  7220  00270C  0E05               	movlw	(high __ramtop+-1)
  7221  00270E  64F7               	cpfsgt	tblptrh,c
  7222  002710  D003               	bra	u1807
  7223  002712  0008               	tblrd		*
  7224  002714  50F5               	movf	tablat,w,c
  7225  002716  D005               	bra	u1800
  7226  002718                     u1807:
  7227  002718  CFF6 FFE9          	movff	tblptrl,fsr0l
  7228  00271C  CFF7 FFEA          	movff	tblptrh,fsr0h
  7229  002720  50EF               	movf	indf0,w,c
  7230  002722                     u1800:
  7231  002722  0900               	iorlw	0
  7232  002724  A4D8               	btfss	status,2,c
  7233  002726  EF97  F013         	goto	u1811
  7234  00272A  EF99  F013         	goto	u1810
  7235  00272E                     u1811:
  7236  00272E  EF6B  F013         	goto	l2748
  7237  002732                     u1810:
  7238  002732  0012               	return		;funcret
  7239  002734                     __end_of_clcd_print:
  7240                           	callstack 0
  7241                           
  7242 ;; *************** function _clcd_write *****************
  7243 ;; Defined at:
  7244 ;;		line 33 in file "clcd.c"
  7245 ;; Parameters:    Size  Location     Type
  7246 ;;  byte            1    wreg     unsigned char 
  7247 ;;  control_bit     1    0[COMRAM] unsigned char 
  7248 ;; Auto vars:     Size  Location     Type
  7249 ;;  byte            1    1[COMRAM] unsigned char 
  7250 ;; Return value:  Size  Location     Type
  7251 ;;                  1    wreg      void 
  7252 ;; Registers used:
  7253 ;;		wreg
  7254 ;; Tracked objects:
  7255 ;;		On entry : 0/0
  7256 ;;		On exit  : 0/0
  7257 ;;		Unchanged: 0/0
  7258 ;; Data sizes:     COMRAM   BANK0   BANK1   BANK2   BANK3   BANK4   BANK5
  7259 ;;      Params:         1       0       0       0       0       0       0
  7260 ;;      Locals:         1       0       0       0       0       0       0
  7261 ;;      Temps:          0       0       0       0       0       0       0
  7262 ;;      Totals:         2       0       0       0       0       0       0
  7263 ;;Total ram usage:        2 bytes
  7264 ;; Hardware stack levels used: 1
  7265 ;; This function calls:
  7266 ;;		Nothing
  7267 ;; This function is called by:
  7268 ;;		_main
  7269 ;;		_init_clcd
  7270 ;;		_clcd_print
  7271 ;;		_clcd_print_ch
  7272 ;;		_check_pssd
  7273 ;;		_login_screen
  7274 ;;		_view_log
  7275 ;;		_clear_log
  7276 ;;		_download_log
  7277 ;;		_change_pssd
  7278 ;; This function uses a non-reentrant model
  7279 ;;
  7280                           
  7281                           	psect	text44
  7282  0028A2                     __ptext44:
  7283                           	callstack 0
  7284  0028A2                     _clcd_write:
  7285                           	callstack 29
  7286                           
  7287                           ;incstack = 0
  7288                           ;clcd_write@byte stored from wreg
  7289  0028A2  6E02               	movwf	clcd_write@byte^0,c
  7290  0028A4                     
  7291                           ;clcd.c: 33: void clcd_write(unsigned char byte,unsigned char control_bit);clcd.c: 34: {
      +                          ;clcd.c: 35:     RC1 = control_bit;
  7292  0028A4  B001               	btfsc	clcd_write@control_bit^0,0,c
  7293  0028A6  EF57  F014         	goto	u1761
  7294  0028AA  EF5A  F014         	goto	u1760
  7295  0028AE                     u1761:
  7296  0028AE  8282               	bsf	3970,1,c	;volatile
  7297  0028B0  EF5B  F014         	goto	u1775
  7298  0028B4                     u1760:
  7299  0028B4  9282               	bcf	3970,1,c	;volatile
  7300  0028B6                     u1775:
  7301  0028B6                     
  7302                           ;clcd.c: 36:     PORTD = byte;
  7303  0028B6  C002  FF83         	movff	clcd_write@byte,3971	;volatile
  7304  0028BA                     
  7305                           ;clcd.c: 38:     RC2 = 1;
  7306  0028BA  8482               	bsf	3970,2,c	;volatile
  7307  0028BC                     
  7308                           ;clcd.c: 40:     RC2 = 0;
  7309  0028BC  9482               	bcf	3970,2,c	;volatile
  7310  0028BE                     
  7311                           ;clcd.c: 42:     TRISD7 = 1;
  7312  0028BE  8E95               	bsf	3989,7,c	;volatile
  7313  0028C0                     
  7314                           ;clcd.c: 43:     RC0 = 1;
  7315  0028C0  8082               	bsf	3970,0,c	;volatile
  7316  0028C2                     
  7317                           ;clcd.c: 44:     RC1 = 0;
  7318  0028C2  9282               	bcf	3970,1,c	;volatile
  7319  0028C4                     l2718:
  7320                           
  7321                           ;clcd.c: 47:     {;clcd.c: 48:         RC2 = 1;
  7322  0028C4  8482               	bsf	3970,2,c	;volatile
  7323  0028C6                     
  7324                           ;clcd.c: 49:         RC2 = 0;
  7325  0028C6  9482               	bcf	3970,2,c	;volatile
  7326  0028C8                     
  7327                           ;clcd.c: 50:     }while(RD7);
  7328  0028C8  BE83               	btfsc	3971,7,c	;volatile
  7329  0028CA  EF69  F014         	goto	u1781
  7330  0028CE  EF6B  F014         	goto	u1780
  7331  0028D2                     u1781:
  7332  0028D2  EF62  F014         	goto	l2718
  7333  0028D6                     u1780:
  7334  0028D6                     
  7335                           ;clcd.c: 52:     RC0 = 0;
  7336  0028D6  9082               	bcf	3970,0,c	;volatile
  7337                           
  7338                           ;clcd.c: 53:     TRISD7 = 0;
  7339  0028D8  9E95               	bcf	3989,7,c	;volatile
  7340  0028DA  0012               	return		;funcret
  7341  0028DC                     __end_of_clcd_write:
  7342                           	callstack 0
  7343                           
  7344 ;; *************** function ___xxtofl *****************
  7345 ;; Defined at:
  7346 ;;		line 10 in file "C:\Program Files\Microchip\xc8\v2.36\pic\sources\c99\common\xxtofl.c"
  7347 ;; Parameters:    Size  Location     Type
  7348 ;;  sign            1    wreg     unsigned char 
  7349 ;;  val             4    6[COMRAM] long 
  7350 ;; Auto vars:     Size  Location     Type
  7351 ;;  sign            1   14[COMRAM] unsigned char 
  7352 ;;  arg             4   16[COMRAM] unsigned long 
  7353 ;;  exp             1   15[COMRAM] unsigned char 
  7354 ;; Return value:  Size  Location     Type
  7355 ;;                  4    6[COMRAM] unsigned char 
  7356 ;; Registers used:
  7357 ;;		wreg, status,2, status,0
  7358 ;; Tracked objects:
  7359 ;;		On entry : 0/0
  7360 ;;		On exit  : 0/0
  7361 ;;		Unchanged: 0/0
  7362 ;; Data sizes:     COMRAM   BANK0   BANK1   BANK2   BANK3   BANK4   BANK5
  7363 ;;      Params:         4       0       0       0       0       0       0
  7364 ;;      Locals:         6       0       0       0       0       0       0
  7365 ;;      Temps:          4       0       0       0       0       0       0
  7366 ;;      Totals:        14       0       0       0       0       0       0
  7367 ;;Total ram usage:       14 bytes
  7368 ;; Hardware stack levels used: 1
  7369 ;; This function calls:
  7370 ;;		Nothing
  7371 ;; This function is called by:
  7372 ;;		_main
  7373 ;; This function uses a non-reentrant model
  7374 ;;
  7375                           
  7376                           	psect	text45
  7377  001ABC                     __ptext45:
  7378                           	callstack 0
  7379  001ABC                     ___xxtofl:
  7380                           	callstack 30
  7381                           
  7382                           ;incstack = 0
  7383                           ;___xxtofl@sign stored from wreg
  7384  001ABC  6E0F               	movwf	___xxtofl@sign^0,c
  7385  001ABE  500F               	movf	___xxtofl@sign^0,w,c
  7386  001AC0  B4D8               	btfsc	status,2,c
  7387  001AC2  EF65  F00D         	goto	u3231
  7388  001AC6  EF67  F00D         	goto	u3230
  7389  001ACA                     u3231:
  7390  001ACA  EF89  F00D         	goto	l1295
  7391  001ACE                     u3230:
  7392  001ACE  BE0A               	btfsc	(___xxtofl@val+3)^0,7,c
  7393  001AD0  EF6E  F00D         	goto	u3240
  7394  001AD4  EF6C  F00D         	goto	u3241
  7395  001AD8                     u3241:
  7396  001AD8  EF89  F00D         	goto	l1295
  7397  001ADC                     u3240:
  7398  001ADC  C007  F00B         	movff	___xxtofl@val,??___xxtofl
  7399  001AE0  C008  F00C         	movff	___xxtofl@val+1,??___xxtofl+1
  7400  001AE4  C009  F00D         	movff	___xxtofl@val+2,??___xxtofl+2
  7401  001AE8  C00A  F00E         	movff	___xxtofl@val+3,??___xxtofl+3
  7402  001AEC  1E0B               	comf	??___xxtofl^0,f,c
  7403  001AEE  1E0C               	comf	(??___xxtofl+1)^0,f,c
  7404  001AF0  1E0D               	comf	(??___xxtofl+2)^0,f,c
  7405  001AF2  1E0E               	comf	(??___xxtofl+3)^0,f,c
  7406  001AF4  2A0B               	incf	??___xxtofl^0,f,c
  7407  001AF6  0E00               	movlw	0
  7408  001AF8  220C               	addwfc	(??___xxtofl+1)^0,f,c
  7409  001AFA  220D               	addwfc	(??___xxtofl+2)^0,f,c
  7410  001AFC  220E               	addwfc	(??___xxtofl+3)^0,f,c
  7411  001AFE  C00B  F011         	movff	??___xxtofl,___xxtofl@arg
  7412  001B02  C00C  F012         	movff	??___xxtofl+1,___xxtofl@arg+1
  7413  001B06  C00D  F013         	movff	??___xxtofl+2,___xxtofl@arg+2
  7414  001B0A  C00E  F014         	movff	??___xxtofl+3,___xxtofl@arg+3
  7415  001B0E  EF91  F00D         	goto	l3882
  7416  001B12                     l1295:
  7417  001B12  C007  F011         	movff	___xxtofl@val,___xxtofl@arg
  7418  001B16  C008  F012         	movff	___xxtofl@val+1,___xxtofl@arg+1
  7419  001B1A  C009  F013         	movff	___xxtofl@val+2,___xxtofl@arg+2
  7420  001B1E  C00A  F014         	movff	___xxtofl@val+3,___xxtofl@arg+3
  7421  001B22                     l3882:
  7422  001B22  5007               	movf	___xxtofl@val^0,w,c
  7423  001B24  1008               	iorwf	(___xxtofl@val+1)^0,w,c
  7424  001B26  1009               	iorwf	(___xxtofl@val+2)^0,w,c
  7425  001B28  100A               	iorwf	(___xxtofl@val+3)^0,w,c
  7426  001B2A  A4D8               	btfss	status,2,c
  7427  001B2C  EF9A  F00D         	goto	u3251
  7428  001B30  EF9C  F00D         	goto	u3250
  7429  001B34                     u3251:
  7430  001B34  EFA6  F00D         	goto	l3888
  7431  001B38                     u3250:
  7432  001B38  0E00               	movlw	0
  7433  001B3A  6E07               	movwf	?___xxtofl^0,c
  7434  001B3C  0E00               	movlw	0
  7435  001B3E  6E08               	movwf	(?___xxtofl+1)^0,c
  7436  001B40  0E00               	movlw	0
  7437  001B42  6E09               	movwf	(?___xxtofl+2)^0,c
  7438  001B44  0E00               	movlw	0
  7439  001B46  6E0A               	movwf	(?___xxtofl+3)^0,c
  7440  001B48  EF37  F00E         	goto	l1298
  7441  001B4C                     l3888:
  7442  001B4C  0E96               	movlw	150
  7443  001B4E  6E10               	movwf	___xxtofl@exp^0,c
  7444  001B50  EFB0  F00D         	goto	l3892
  7445  001B54                     l3890:
  7446  001B54  2A10               	incf	___xxtofl@exp^0,f,c
  7447  001B56  90D8               	bcf	status,0,c
  7448  001B58  3214               	rrcf	(___xxtofl@arg+3)^0,f,c
  7449  001B5A  3213               	rrcf	(___xxtofl@arg+2)^0,f,c
  7450  001B5C  3212               	rrcf	(___xxtofl@arg+1)^0,f,c
  7451  001B5E  3211               	rrcf	___xxtofl@arg^0,f,c
  7452  001B60                     l3892:
  7453  001B60  0E00               	movlw	0
  7454  001B62  1411               	andwf	___xxtofl@arg^0,w,c
  7455  001B64  6E0B               	movwf	??___xxtofl^0,c
  7456  001B66  0E00               	movlw	0
  7457  001B68  1412               	andwf	(___xxtofl@arg+1)^0,w,c
  7458  001B6A  6E0C               	movwf	(??___xxtofl+1)^0,c
  7459  001B6C  0E00               	movlw	0
  7460  001B6E  1413               	andwf	(___xxtofl@arg+2)^0,w,c
  7461  001B70  6E0D               	movwf	(??___xxtofl+2)^0,c
  7462  001B72  0EFE               	movlw	254
  7463  001B74  1414               	andwf	(___xxtofl@arg+3)^0,w,c
  7464  001B76  6E0E               	movwf	(??___xxtofl+3)^0,c
  7465  001B78  500B               	movf	??___xxtofl^0,w,c
  7466  001B7A  100C               	iorwf	(??___xxtofl+1)^0,w,c
  7467  001B7C  100D               	iorwf	(??___xxtofl+2)^0,w,c
  7468  001B7E  100E               	iorwf	(??___xxtofl+3)^0,w,c
  7469  001B80  A4D8               	btfss	status,2,c
  7470  001B82  EFC5  F00D         	goto	u3261
  7471  001B86  EFC7  F00D         	goto	u3260
  7472  001B8A                     u3261:
  7473  001B8A  EFAA  F00D         	goto	l3890
  7474  001B8E                     u3260:
  7475  001B8E  EFD5  F00D         	goto	l1302
  7476  001B92                     l3894:
  7477  001B92  2A10               	incf	___xxtofl@exp^0,f,c
  7478  001B94  0E01               	movlw	1
  7479  001B96  2611               	addwf	___xxtofl@arg^0,f,c
  7480  001B98  0E00               	movlw	0
  7481  001B9A  2212               	addwfc	(___xxtofl@arg+1)^0,f,c
  7482  001B9C  2213               	addwfc	(___xxtofl@arg+2)^0,f,c
  7483  001B9E  2214               	addwfc	(___xxtofl@arg+3)^0,f,c
  7484  001BA0  90D8               	bcf	status,0,c
  7485  001BA2  3214               	rrcf	(___xxtofl@arg+3)^0,f,c
  7486  001BA4  3213               	rrcf	(___xxtofl@arg+2)^0,f,c
  7487  001BA6  3212               	rrcf	(___xxtofl@arg+1)^0,f,c
  7488  001BA8  3211               	rrcf	___xxtofl@arg^0,f,c
  7489  001BAA                     l1302:
  7490  001BAA  0E00               	movlw	0
  7491  001BAC  1411               	andwf	___xxtofl@arg^0,w,c
  7492  001BAE  6E0B               	movwf	??___xxtofl^0,c
  7493  001BB0  0E00               	movlw	0
  7494  001BB2  1412               	andwf	(___xxtofl@arg+1)^0,w,c
  7495  001BB4  6E0C               	movwf	(??___xxtofl+1)^0,c
  7496  001BB6  0E00               	movlw	0
  7497  001BB8  1413               	andwf	(___xxtofl@arg+2)^0,w,c
  7498  001BBA  6E0D               	movwf	(??___xxtofl+2)^0,c
  7499  001BBC  0EFF               	movlw	255
  7500  001BBE  1414               	andwf	(___xxtofl@arg+3)^0,w,c
  7501  001BC0  6E0E               	movwf	(??___xxtofl+3)^0,c
  7502  001BC2  500B               	movf	??___xxtofl^0,w,c
  7503  001BC4  100C               	iorwf	(??___xxtofl+1)^0,w,c
  7504  001BC6  100D               	iorwf	(??___xxtofl+2)^0,w,c
  7505  001BC8  100E               	iorwf	(??___xxtofl+3)^0,w,c
  7506  001BCA  A4D8               	btfss	status,2,c
  7507  001BCC  EFEA  F00D         	goto	u3271
  7508  001BD0  EFEC  F00D         	goto	u3270
  7509  001BD4                     u3271:
  7510  001BD4  EFC9  F00D         	goto	l3894
  7511  001BD8                     u3270:
  7512  001BD8  EFF4  F00D         	goto	l3902
  7513  001BDC                     l3900:
  7514  001BDC  0610               	decf	___xxtofl@exp^0,f,c
  7515  001BDE  90D8               	bcf	status,0,c
  7516  001BE0  3611               	rlcf	___xxtofl@arg^0,f,c
  7517  001BE2  3612               	rlcf	(___xxtofl@arg+1)^0,f,c
  7518  001BE4  3613               	rlcf	(___xxtofl@arg+2)^0,f,c
  7519  001BE6  3614               	rlcf	(___xxtofl@arg+3)^0,f,c
  7520  001BE8                     l3902:
  7521  001BE8  BE13               	btfsc	(___xxtofl@arg+2)^0,7,c
  7522  001BEA  EFF9  F00D         	goto	u3281
  7523  001BEE  EFFB  F00D         	goto	u3280
  7524  001BF2                     u3281:
  7525  001BF2  EF03  F00E         	goto	l1309
  7526  001BF6                     u3280:
  7527  001BF6  0E02               	movlw	2
  7528  001BF8  6010               	cpfslt	___xxtofl@exp^0,c
  7529  001BFA  EF01  F00E         	goto	u3291
  7530  001BFE  EF03  F00E         	goto	u3290
  7531  001C02                     u3291:
  7532  001C02  EFEE  F00D         	goto	l3900
  7533  001C06                     u3290:
  7534  001C06                     l1309:
  7535  001C06  B010               	btfsc	___xxtofl@exp^0,0,c
  7536  001C08  EF08  F00E         	goto	u3301
  7537  001C0C  EF0A  F00E         	goto	u3300
  7538  001C10                     u3301:
  7539  001C10  EF0B  F00E         	goto	l3908
  7540  001C14                     u3300:
  7541  001C14  9E13               	bcf	(___xxtofl@arg+2)^0,7,c
  7542  001C16                     l3908:
  7543  001C16  90D8               	bcf	status,0,c
  7544  001C18  3210               	rrcf	___xxtofl@exp^0,f,c
  7545  001C1A  C010  F00B         	movff	___xxtofl@exp,??___xxtofl
  7546  001C1E  6A0C               	clrf	(??___xxtofl+1)^0,c
  7547  001C20  6A0D               	clrf	(??___xxtofl+2)^0,c
  7548  001C22  6A0E               	clrf	(??___xxtofl+3)^0,c
  7549  001C24  C00B  F00E         	movff	??___xxtofl,??___xxtofl+3
  7550  001C28  6A0D               	clrf	(??___xxtofl+2)^0,c
  7551  001C2A  6A0C               	clrf	(??___xxtofl+1)^0,c
  7552  001C2C  6A0B               	clrf	??___xxtofl^0,c
  7553  001C2E  500B               	movf	??___xxtofl^0,w,c
  7554  001C30  1211               	iorwf	___xxtofl@arg^0,f,c
  7555  001C32  500C               	movf	(??___xxtofl+1)^0,w,c
  7556  001C34  1212               	iorwf	(___xxtofl@arg+1)^0,f,c
  7557  001C36  500D               	movf	(??___xxtofl+2)^0,w,c
  7558  001C38  1213               	iorwf	(___xxtofl@arg+2)^0,f,c
  7559  001C3A  500E               	movf	(??___xxtofl+3)^0,w,c
  7560  001C3C  1214               	iorwf	(___xxtofl@arg+3)^0,f,c
  7561  001C3E  500F               	movf	___xxtofl@sign^0,w,c
  7562  001C40  B4D8               	btfsc	status,2,c
  7563  001C42  EF25  F00E         	goto	u3311
  7564  001C46  EF27  F00E         	goto	u3310
  7565  001C4A                     u3311:
  7566  001C4A  EF2F  F00E         	goto	l3918
  7567  001C4E                     u3310:
  7568  001C4E  BE0A               	btfsc	(___xxtofl@val+3)^0,7,c
  7569  001C50  EF2E  F00E         	goto	u3320
  7570  001C54  EF2C  F00E         	goto	u3321
  7571  001C58                     u3321:
  7572  001C58  EF2F  F00E         	goto	l3918
  7573  001C5C                     u3320:
  7574  001C5C  8E14               	bsf	(___xxtofl@arg+3)^0,7,c
  7575  001C5E                     l3918:
  7576  001C5E  C011  F007         	movff	___xxtofl@arg,?___xxtofl
  7577  001C62  C012  F008         	movff	___xxtofl@arg+1,?___xxtofl+1
  7578  001C66  C013  F009         	movff	___xxtofl@arg+2,?___xxtofl+2
  7579  001C6A  C014  F00A         	movff	___xxtofl@arg+3,?___xxtofl+3
  7580  001C6E                     l1298:
  7581  001C6E  0012               	return		;funcret
  7582  001C70                     __end_of___xxtofl:
  7583                           	callstack 0
  7584                           
  7585 ;; *************** function ___fltol *****************
  7586 ;; Defined at:
  7587 ;;		line 43 in file "C:\Program Files\Microchip\xc8\v2.36\pic\sources\c99\common\fltol.c"
  7588 ;; Parameters:    Size  Location     Type
  7589 ;;  f1              4   45[COMRAM] unsigned char 
  7590 ;; Auto vars:     Size  Location     Type
  7591 ;;  exp1            1   54[COMRAM] unsigned char 
  7592 ;;  sign1           1   53[COMRAM] unsigned char 
  7593 ;; Return value:  Size  Location     Type
  7594 ;;                  4   45[COMRAM] long 
  7595 ;; Registers used:
  7596 ;;		wreg, status,2, status,0
  7597 ;; Tracked objects:
  7598 ;;		On entry : 0/0
  7599 ;;		On exit  : 0/0
  7600 ;;		Unchanged: 0/0
  7601 ;; Data sizes:     COMRAM   BANK0   BANK1   BANK2   BANK3   BANK4   BANK5
  7602 ;;      Params:         4       0       0       0       0       0       0
  7603 ;;      Locals:         2       0       0       0       0       0       0
  7604 ;;      Temps:          4       0       0       0       0       0       0
  7605 ;;      Totals:        10       0       0       0       0       0       0
  7606 ;;Total ram usage:       10 bytes
  7607 ;; Hardware stack levels used: 1
  7608 ;; This function calls:
  7609 ;;		Nothing
  7610 ;; This function is called by:
  7611 ;;		_main
  7612 ;; This function uses a non-reentrant model
  7613 ;;
  7614                           
  7615                           	psect	text46
  7616  001DB4                     __ptext46:
  7617                           	callstack 0
  7618  001DB4                     ___fltol:
  7619                           	callstack 30
  7620  001DB4  3430               	rlcf	(___fltol@f1+2)^0,w,c
  7621  001DB6  3431               	rlcf	(___fltol@f1+3)^0,w,c
  7622  001DB8  6E37               	movwf	___fltol@exp1^0,c
  7623  001DBA  5037               	movf	___fltol@exp1^0,w,c
  7624  001DBC  A4D8               	btfss	status,2,c
  7625  001DBE  EFE3  F00E         	goto	u3161
  7626  001DC2  EFE5  F00E         	goto	u3160
  7627  001DC6                     u3161:
  7628  001DC6  EFEF  F00E         	goto	l3838
  7629  001DCA                     u3160:
  7630  001DCA                     l3834:
  7631  001DCA  0E00               	movlw	0
  7632  001DCC  6E2E               	movwf	?___fltol^0,c
  7633  001DCE  0E00               	movlw	0
  7634  001DD0  6E2F               	movwf	(?___fltol+1)^0,c
  7635  001DD2  0E00               	movlw	0
  7636  001DD4  6E30               	movwf	(?___fltol+2)^0,c
  7637  001DD6  0E00               	movlw	0
  7638  001DD8  6E31               	movwf	(?___fltol+3)^0,c
  7639  001DDA  EF5C  F00F         	goto	l937
  7640  001DDE                     l3838:
  7641  001DDE  C02E  F032         	movff	___fltol@f1,??___fltol
  7642  001DE2  C02F  F033         	movff	___fltol@f1+1,??___fltol+1
  7643  001DE6  C030  F034         	movff	___fltol@f1+2,??___fltol+2
  7644  001DEA  C031  F035         	movff	___fltol@f1+3,??___fltol+3
  7645  001DEE  0E20               	movlw	32
  7646  001DF0  EFFF  F00E         	goto	u3170
  7647  001DF4                     u3175:
  7648  001DF4  90D8               	bcf	status,0,c
  7649  001DF6  3235               	rrcf	(??___fltol+3)^0,f,c
  7650  001DF8  3234               	rrcf	(??___fltol+2)^0,f,c
  7651  001DFA  3233               	rrcf	(??___fltol+1)^0,f,c
  7652  001DFC  3232               	rrcf	??___fltol^0,f,c
  7653  001DFE                     u3170:
  7654  001DFE  2EE8               	decfsz	wreg,f,c
  7655  001E00  EFFA  F00E         	goto	u3175
  7656  001E04  5032               	movf	??___fltol^0,w,c
  7657  001E06  6E36               	movwf	___fltol@sign1^0,c
  7658  001E08  8E30               	bsf	(___fltol@f1+2)^0,7,c
  7659  001E0A  0EFF               	movlw	255
  7660  001E0C  162E               	andwf	___fltol@f1^0,f,c
  7661  001E0E  0EFF               	movlw	255
  7662  001E10  162F               	andwf	(___fltol@f1+1)^0,f,c
  7663  001E12  0EFF               	movlw	255
  7664  001E14  1630               	andwf	(___fltol@f1+2)^0,f,c
  7665  001E16  0E00               	movlw	0
  7666  001E18  1631               	andwf	(___fltol@f1+3)^0,f,c
  7667  001E1A  0E96               	movlw	150
  7668  001E1C  5E37               	subwf	___fltol@exp1^0,f,c
  7669  001E1E  BE37               	btfsc	___fltol@exp1^0,7,c
  7670  001E20  EF16  F00F         	goto	u3180
  7671  001E24  EF14  F00F         	goto	u3181
  7672  001E28                     u3181:
  7673  001E28  EF2C  F00F         	goto	l3858
  7674  001E2C                     u3180:
  7675  001E2C  5037               	movf	___fltol@exp1^0,w,c
  7676  001E2E  0A80               	xorlw	128
  7677  001E30  0F97               	addlw	151
  7678  001E32  B0D8               	btfsc	status,0,c
  7679  001E34  EF1E  F00F         	goto	u3191
  7680  001E38  EF20  F00F         	goto	u3190
  7681  001E3C                     u3191:
  7682  001E3C  EF22  F00F         	goto	l3854
  7683  001E40                     u3190:
  7684  001E40  EFE5  F00E         	goto	l3834
  7685  001E44                     l3854:
  7686  001E44  90D8               	bcf	status,0,c
  7687  001E46  3231               	rrcf	(___fltol@f1+3)^0,f,c
  7688  001E48  3230               	rrcf	(___fltol@f1+2)^0,f,c
  7689  001E4A  322F               	rrcf	(___fltol@f1+1)^0,f,c
  7690  001E4C  322E               	rrcf	___fltol@f1^0,f,c
  7691  001E4E  3E37               	incfsz	___fltol@exp1^0,f,c
  7692  001E50  EF22  F00F         	goto	l3854
  7693  001E54  EF44  F00F         	goto	l3868
  7694  001E58                     l3858:
  7695  001E58  0E1F               	movlw	31
  7696  001E5A  6437               	cpfsgt	___fltol@exp1^0,c
  7697  001E5C  EF32  F00F         	goto	u3201
  7698  001E60  EF34  F00F         	goto	u3200
  7699  001E64                     u3201:
  7700  001E64  EF3C  F00F         	goto	l3866
  7701  001E68                     u3200:
  7702  001E68  EFE5  F00E         	goto	l3834
  7703  001E6C                     l3864:
  7704  001E6C  90D8               	bcf	status,0,c
  7705  001E6E  362E               	rlcf	___fltol@f1^0,f,c
  7706  001E70  362F               	rlcf	(___fltol@f1+1)^0,f,c
  7707  001E72  3630               	rlcf	(___fltol@f1+2)^0,f,c
  7708  001E74  3631               	rlcf	(___fltol@f1+3)^0,f,c
  7709  001E76  0637               	decf	___fltol@exp1^0,f,c
  7710  001E78                     l3866:
  7711  001E78  5037               	movf	___fltol@exp1^0,w,c
  7712  001E7A  A4D8               	btfss	status,2,c
  7713  001E7C  EF42  F00F         	goto	u3211
  7714  001E80  EF44  F00F         	goto	u3210
  7715  001E84                     u3211:
  7716  001E84  EF36  F00F         	goto	l3864
  7717  001E88                     u3210:
  7718  001E88                     l3868:
  7719  001E88  5036               	movf	___fltol@sign1^0,w,c
  7720  001E8A  B4D8               	btfsc	status,2,c
  7721  001E8C  EF4A  F00F         	goto	u3221
  7722  001E90  EF4C  F00F         	goto	u3220
  7723  001E94                     u3221:
  7724  001E94  EF54  F00F         	goto	l3872
  7725  001E98                     u3220:
  7726  001E98  1E31               	comf	(___fltol@f1+3)^0,f,c
  7727  001E9A  1E30               	comf	(___fltol@f1+2)^0,f,c
  7728  001E9C  1E2F               	comf	(___fltol@f1+1)^0,f,c
  7729  001E9E  6C2E               	negf	___fltol@f1^0,c
  7730  001EA0  0E00               	movlw	0
  7731  001EA2  222F               	addwfc	(___fltol@f1+1)^0,f,c
  7732  001EA4  2230               	addwfc	(___fltol@f1+2)^0,f,c
  7733  001EA6  2231               	addwfc	(___fltol@f1+3)^0,f,c
  7734  001EA8                     l3872:
  7735  001EA8  C02E  F02E         	movff	___fltol@f1,?___fltol
  7736  001EAC  C02F  F02F         	movff	___fltol@f1+1,?___fltol+1
  7737  001EB0  C030  F030         	movff	___fltol@f1+2,?___fltol+2
  7738  001EB4  C031  F031         	movff	___fltol@f1+3,?___fltol+3
  7739  001EB8                     l937:
  7740  001EB8  0012               	return		;funcret
  7741  001EBA                     __end_of___fltol:
  7742                           	callstack 0
  7743                           
  7744 ;; *************** function ___fldiv *****************
  7745 ;; Defined at:
  7746 ;;		line 11 in file "C:\Program Files\Microchip\xc8\v2.36\pic\sources\c99\common\sprcdiv.c"
  7747 ;; Parameters:    Size  Location     Type
  7748 ;;  b               4   20[COMRAM] long 
  7749 ;;  a               4   24[COMRAM] long 
  7750 ;; Auto vars:     Size  Location     Type
  7751 ;;  grs             4   39[COMRAM] unsigned long 
  7752 ;;  rem             4   32[COMRAM] unsigned long 
  7753 ;;  new_exp         2   37[COMRAM] short 
  7754 ;;  aexp            1   44[COMRAM] unsigned char 
  7755 ;;  bexp            1   43[COMRAM] unsigned char 
  7756 ;;  sign            1   36[COMRAM] unsigned char 
  7757 ;; Return value:  Size  Location     Type
  7758 ;;                  4   20[COMRAM] unsigned char 
  7759 ;; Registers used:
  7760 ;;		wreg, status,2, status,0
  7761 ;; Tracked objects:
  7762 ;;		On entry : 0/0
  7763 ;;		On exit  : 0/0
  7764 ;;		Unchanged: 0/0
  7765 ;; Data sizes:     COMRAM   BANK0   BANK1   BANK2   BANK3   BANK4   BANK5
  7766 ;;      Params:         8       0       0       0       0       0       0
  7767 ;;      Locals:        13       0       0       0       0       0       0
  7768 ;;      Temps:          4       0       0       0       0       0       0
  7769 ;;      Totals:        25       0       0       0       0       0       0
  7770 ;;Total ram usage:       25 bytes
  7771 ;; Hardware stack levels used: 1
  7772 ;; This function calls:
  7773 ;;		Nothing
  7774 ;; This function is called by:
  7775 ;;		_main
  7776 ;; This function uses a non-reentrant model
  7777 ;;
  7778                           
  7779                           	psect	text47
  7780  000BAA                     __ptext47:
  7781                           	callstack 0
  7782  000BAA                     ___fldiv:
  7783                           	callstack 30
  7784  000BAA  5018               	movf	(___fldiv@b+3)^0,w,c
  7785  000BAC  0B80               	andlw	128
  7786  000BAE  6E25               	movwf	___fldiv@sign^0,c
  7787  000BB0  5018               	movf	(___fldiv@b+3)^0,w,c
  7788  000BB2  2418               	addwf	(___fldiv@b+3)^0,w,c
  7789  000BB4  6E2C               	movwf	___fldiv@bexp^0,c
  7790  000BB6  AE17               	btfss	(___fldiv@b+2)^0,7,c
  7791  000BB8  EFE0  F005         	goto	u2931
  7792  000BBC  EFE2  F005         	goto	u2930
  7793  000BC0                     u2931:
  7794  000BC0  EFE3  F005         	goto	l3700
  7795  000BC4                     u2930:
  7796  000BC4  802C               	bsf	___fldiv@bexp^0,0,c
  7797  000BC6                     l3700:
  7798  000BC6  502C               	movf	___fldiv@bexp^0,w,c
  7799  000BC8  B4D8               	btfsc	status,2,c
  7800  000BCA  EFE9  F005         	goto	u2941
  7801  000BCE  EFEB  F005         	goto	u2940
  7802  000BD2                     u2941:
  7803  000BD2  EF00  F006         	goto	l3710
  7804  000BD6                     u2940:
  7805  000BD6  282C               	incf	___fldiv@bexp^0,w,c
  7806  000BD8  A4D8               	btfss	status,2,c
  7807  000BDA  EFF1  F005         	goto	u2951
  7808  000BDE  EFF3  F005         	goto	u2950
  7809  000BE2                     u2951:
  7810  000BE2  EFFB  F005         	goto	l3706
  7811  000BE6                     u2950:
  7812  000BE6  0E00               	movlw	0
  7813  000BE8  6E15               	movwf	___fldiv@b^0,c
  7814  000BEA  0E00               	movlw	0
  7815  000BEC  6E16               	movwf	(___fldiv@b+1)^0,c
  7816  000BEE  0E00               	movlw	0
  7817  000BF0  6E17               	movwf	(___fldiv@b+2)^0,c
  7818  000BF2  0E00               	movlw	0
  7819  000BF4  6E18               	movwf	(___fldiv@b+3)^0,c
  7820  000BF6                     l3706:
  7821  000BF6  8E17               	bsf	(___fldiv@b+2)^0,7,c
  7822  000BF8  0E00               	movlw	0
  7823  000BFA  6E18               	movwf	(___fldiv@b+3)^0,c
  7824  000BFC  EF08  F006         	goto	l3712
  7825  000C00                     l3710:
  7826  000C00  0E00               	movlw	0
  7827  000C02  6E15               	movwf	___fldiv@b^0,c
  7828  000C04  0E00               	movlw	0
  7829  000C06  6E16               	movwf	(___fldiv@b+1)^0,c
  7830  000C08  0E00               	movlw	0
  7831  000C0A  6E17               	movwf	(___fldiv@b+2)^0,c
  7832  000C0C  0E00               	movlw	0
  7833  000C0E  6E18               	movwf	(___fldiv@b+3)^0,c
  7834  000C10                     l3712:
  7835  000C10  501C               	movf	(___fldiv@a+3)^0,w,c
  7836  000C12  0B80               	andlw	128
  7837  000C14  1A25               	xorwf	___fldiv@sign^0,f,c
  7838  000C16  501C               	movf	(___fldiv@a+3)^0,w,c
  7839  000C18  241C               	addwf	(___fldiv@a+3)^0,w,c
  7840  000C1A  6E2D               	movwf	___fldiv@aexp^0,c
  7841  000C1C  AE1B               	btfss	(___fldiv@a+2)^0,7,c
  7842  000C1E  EF13  F006         	goto	u2961
  7843  000C22  EF15  F006         	goto	u2960
  7844  000C26                     u2961:
  7845  000C26  EF16  F006         	goto	l3720
  7846  000C2A                     u2960:
  7847  000C2A  802D               	bsf	___fldiv@aexp^0,0,c
  7848  000C2C                     l3720:
  7849  000C2C  502D               	movf	___fldiv@aexp^0,w,c
  7850  000C2E  B4D8               	btfsc	status,2,c
  7851  000C30  EF1C  F006         	goto	u2971
  7852  000C34  EF1E  F006         	goto	u2970
  7853  000C38                     u2971:
  7854  000C38  EF33  F006         	goto	l3730
  7855  000C3C                     u2970:
  7856  000C3C  282D               	incf	___fldiv@aexp^0,w,c
  7857  000C3E  A4D8               	btfss	status,2,c
  7858  000C40  EF24  F006         	goto	u2981
  7859  000C44  EF26  F006         	goto	u2980
  7860  000C48                     u2981:
  7861  000C48  EF2E  F006         	goto	l3726
  7862  000C4C                     u2980:
  7863  000C4C  0E00               	movlw	0
  7864  000C4E  6E19               	movwf	___fldiv@a^0,c
  7865  000C50  0E00               	movlw	0
  7866  000C52  6E1A               	movwf	(___fldiv@a+1)^0,c
  7867  000C54  0E00               	movlw	0
  7868  000C56  6E1B               	movwf	(___fldiv@a+2)^0,c
  7869  000C58  0E00               	movlw	0
  7870  000C5A  6E1C               	movwf	(___fldiv@a+3)^0,c
  7871  000C5C                     l3726:
  7872  000C5C  8E1B               	bsf	(___fldiv@a+2)^0,7,c
  7873  000C5E  0E00               	movlw	0
  7874  000C60  6E1C               	movwf	(___fldiv@a+3)^0,c
  7875  000C62  EF3B  F006         	goto	l3732
  7876  000C66                     l3730:
  7877  000C66  0E00               	movlw	0
  7878  000C68  6E19               	movwf	___fldiv@a^0,c
  7879  000C6A  0E00               	movlw	0
  7880  000C6C  6E1A               	movwf	(___fldiv@a+1)^0,c
  7881  000C6E  0E00               	movlw	0
  7882  000C70  6E1B               	movwf	(___fldiv@a+2)^0,c
  7883  000C72  0E00               	movlw	0
  7884  000C74  6E1C               	movwf	(___fldiv@a+3)^0,c
  7885  000C76                     l3732:
  7886  000C76  5019               	movf	___fldiv@a^0,w,c
  7887  000C78  101A               	iorwf	(___fldiv@a+1)^0,w,c
  7888  000C7A  101B               	iorwf	(___fldiv@a+2)^0,w,c
  7889  000C7C  101C               	iorwf	(___fldiv@a+3)^0,w,c
  7890  000C7E  A4D8               	btfss	status,2,c
  7891  000C80  EF44  F006         	goto	u2991
  7892  000C84  EF46  F006         	goto	u2990
  7893  000C88                     u2991:
  7894  000C88  EF5E  F006         	goto	l3744
  7895  000C8C                     u2990:
  7896  000C8C  0E00               	movlw	0
  7897  000C8E  6E15               	movwf	___fldiv@b^0,c
  7898  000C90  0E00               	movlw	0
  7899  000C92  6E16               	movwf	(___fldiv@b+1)^0,c
  7900  000C94  0E00               	movlw	0
  7901  000C96  6E17               	movwf	(___fldiv@b+2)^0,c
  7902  000C98  0E00               	movlw	0
  7903  000C9A  6E18               	movwf	(___fldiv@b+3)^0,c
  7904  000C9C  0E80               	movlw	128
  7905  000C9E  1217               	iorwf	(___fldiv@b+2)^0,f,c
  7906  000CA0  0E7F               	movlw	127
  7907  000CA2  1218               	iorwf	(___fldiv@b+3)^0,f,c
  7908  000CA4                     l3738:
  7909  000CA4  5025               	movf	___fldiv@sign^0,w,c
  7910  000CA6  1218               	iorwf	(___fldiv@b+3)^0,f,c
  7911  000CA8  C015  F015         	movff	___fldiv@b,?___fldiv
  7912  000CAC  C016  F016         	movff	___fldiv@b+1,?___fldiv+1
  7913  000CB0  C017  F017         	movff	___fldiv@b+2,?___fldiv+2
  7914  000CB4  C018  F018         	movff	___fldiv@b+3,?___fldiv+3
  7915  000CB8  EFA1  F007         	goto	l1222
  7916  000CBC                     l3744:
  7917  000CBC  502C               	movf	___fldiv@bexp^0,w,c
  7918  000CBE  A4D8               	btfss	status,2,c
  7919  000CC0  EF64  F006         	goto	u3001
  7920  000CC4  EF66  F006         	goto	u3000
  7921  000CC8                     u3001:
  7922  000CC8  EF70  F006         	goto	l3752
  7923  000CCC                     u3000:
  7924  000CCC  0E00               	movlw	0
  7925  000CCE  6E15               	movwf	?___fldiv^0,c
  7926  000CD0  0E00               	movlw	0
  7927  000CD2  6E16               	movwf	(?___fldiv+1)^0,c
  7928  000CD4  0E00               	movlw	0
  7929  000CD6  6E17               	movwf	(?___fldiv+2)^0,c
  7930  000CD8  0E00               	movlw	0
  7931  000CDA  6E18               	movwf	(?___fldiv+3)^0,c
  7932  000CDC  EFA1  F007         	goto	l1222
  7933  000CE0                     l3752:
  7934  000CE0  502D               	movf	___fldiv@aexp^0,w,c
  7935  000CE2  C02C  F01D         	movff	___fldiv@bexp,??___fldiv
  7936  000CE6  6A1E               	clrf	(??___fldiv+1)^0,c
  7937  000CE8  5E1D               	subwf	??___fldiv^0,f,c
  7938  000CEA  0E00               	movlw	0
  7939  000CEC  5A1E               	subwfb	(??___fldiv+1)^0,f,c
  7940  000CEE  0E7F               	movlw	127
  7941  000CF0  241D               	addwf	??___fldiv^0,w,c
  7942  000CF2  6E26               	movwf	___fldiv@new_exp^0,c
  7943  000CF4  0E00               	movlw	0
  7944  000CF6  201E               	addwfc	(??___fldiv+1)^0,w,c
  7945  000CF8  6E27               	movwf	(___fldiv@new_exp+1)^0,c
  7946  000CFA  C015  F021         	movff	___fldiv@b,___fldiv@rem
  7947  000CFE  C016  F022         	movff	___fldiv@b+1,___fldiv@rem+1
  7948  000D02  C017  F023         	movff	___fldiv@b+2,___fldiv@rem+2
  7949  000D06  C018  F024         	movff	___fldiv@b+3,___fldiv@rem+3
  7950  000D0A  0E00               	movlw	0
  7951  000D0C  6E15               	movwf	___fldiv@b^0,c
  7952  000D0E  0E00               	movlw	0
  7953  000D10  6E16               	movwf	(___fldiv@b+1)^0,c
  7954  000D12  0E00               	movlw	0
  7955  000D14  6E17               	movwf	(___fldiv@b+2)^0,c
  7956  000D16  0E00               	movlw	0
  7957  000D18  6E18               	movwf	(___fldiv@b+3)^0,c
  7958  000D1A  0E00               	movlw	0
  7959  000D1C  6E28               	movwf	___fldiv@grs^0,c
  7960  000D1E  0E00               	movlw	0
  7961  000D20  6E29               	movwf	(___fldiv@grs+1)^0,c
  7962  000D22  0E00               	movlw	0
  7963  000D24  6E2A               	movwf	(___fldiv@grs+2)^0,c
  7964  000D26  0E00               	movlw	0
  7965  000D28  6E2B               	movwf	(___fldiv@grs+3)^0,c
  7966  000D2A  0E00               	movlw	0
  7967  000D2C  6E2D               	movwf	___fldiv@aexp^0,c
  7968  000D2E  EFD1  F006         	goto	l1224
  7969  000D32                     l3762:
  7970  000D32  502D               	movf	___fldiv@aexp^0,w,c
  7971  000D34  B4D8               	btfsc	status,2,c
  7972  000D36  EF9F  F006         	goto	u3011
  7973  000D3A  EFA1  F006         	goto	u3010
  7974  000D3E                     u3011:
  7975  000D3E  EFB8  F006         	goto	l3770
  7976  000D42                     u3010:
  7977  000D42  90D8               	bcf	status,0,c
  7978  000D44  3621               	rlcf	___fldiv@rem^0,f,c
  7979  000D46  3622               	rlcf	(___fldiv@rem+1)^0,f,c
  7980  000D48  3623               	rlcf	(___fldiv@rem+2)^0,f,c
  7981  000D4A  3624               	rlcf	(___fldiv@rem+3)^0,f,c
  7982  000D4C  90D8               	bcf	status,0,c
  7983  000D4E  3615               	rlcf	___fldiv@b^0,f,c
  7984  000D50  3616               	rlcf	(___fldiv@b+1)^0,f,c
  7985  000D52  3617               	rlcf	(___fldiv@b+2)^0,f,c
  7986  000D54  3618               	rlcf	(___fldiv@b+3)^0,f,c
  7987  000D56  AE2B               	btfss	(___fldiv@grs+3)^0,7,c
  7988  000D58  EFB0  F006         	goto	u3021
  7989  000D5C  EFB2  F006         	goto	u3020
  7990  000D60                     u3021:
  7991  000D60  EFB3  F006         	goto	l1227
  7992  000D64                     u3020:
  7993  000D64  8015               	bsf	___fldiv@b^0,0,c
  7994  000D66                     l1227:
  7995  000D66  90D8               	bcf	status,0,c
  7996  000D68  3628               	rlcf	___fldiv@grs^0,f,c
  7997  000D6A  3629               	rlcf	(___fldiv@grs+1)^0,f,c
  7998  000D6C  362A               	rlcf	(___fldiv@grs+2)^0,f,c
  7999  000D6E  362B               	rlcf	(___fldiv@grs+3)^0,f,c
  8000  000D70                     l3770:
  8001  000D70  5019               	movf	___fldiv@a^0,w,c
  8002  000D72  5C21               	subwf	___fldiv@rem^0,w,c
  8003  000D74  501A               	movf	(___fldiv@a+1)^0,w,c
  8004  000D76  5822               	subwfb	(___fldiv@rem+1)^0,w,c
  8005  000D78  501B               	movf	(___fldiv@a+2)^0,w,c
  8006  000D7A  5823               	subwfb	(___fldiv@rem+2)^0,w,c
  8007  000D7C  501C               	movf	(___fldiv@a+3)^0,w,c
  8008  000D7E  5824               	subwfb	(___fldiv@rem+3)^0,w,c
  8009  000D80  A0D8               	btfss	status,0,c
  8010  000D82  EFC5  F006         	goto	u3031
  8011  000D86  EFC7  F006         	goto	u3030
  8012  000D8A                     u3031:
  8013  000D8A  EFD0  F006         	goto	l3776
  8014  000D8E                     u3030:
  8015  000D8E  8C2B               	bsf	(___fldiv@grs+3)^0,6,c
  8016  000D90  5019               	movf	___fldiv@a^0,w,c
  8017  000D92  5E21               	subwf	___fldiv@rem^0,f,c
  8018  000D94  501A               	movf	(___fldiv@a+1)^0,w,c
  8019  000D96  5A22               	subwfb	(___fldiv@rem+1)^0,f,c
  8020  000D98  501B               	movf	(___fldiv@a+2)^0,w,c
  8021  000D9A  5A23               	subwfb	(___fldiv@rem+2)^0,f,c
  8022  000D9C  501C               	movf	(___fldiv@a+3)^0,w,c
  8023  000D9E  5A24               	subwfb	(___fldiv@rem+3)^0,f,c
  8024  000DA0                     l3776:
  8025  000DA0  2A2D               	incf	___fldiv@aexp^0,f,c
  8026  000DA2                     l1224:
  8027  000DA2  0E19               	movlw	25
  8028  000DA4  642D               	cpfsgt	___fldiv@aexp^0,c
  8029  000DA6  EFD7  F006         	goto	u3041
  8030  000DAA  EFD9  F006         	goto	u3040
  8031  000DAE                     u3041:
  8032  000DAE  EF99  F006         	goto	l3762
  8033  000DB2                     u3040:
  8034  000DB2  5021               	movf	___fldiv@rem^0,w,c
  8035  000DB4  1022               	iorwf	(___fldiv@rem+1)^0,w,c
  8036  000DB6  1023               	iorwf	(___fldiv@rem+2)^0,w,c
  8037  000DB8  1024               	iorwf	(___fldiv@rem+3)^0,w,c
  8038  000DBA  B4D8               	btfsc	status,2,c
  8039  000DBC  EFE2  F006         	goto	u3051
  8040  000DC0  EFE4  F006         	goto	u3050
  8041  000DC4                     u3051:
  8042  000DC4  EFFC  F006         	goto	l3788
  8043  000DC8                     u3050:
  8044  000DC8  8028               	bsf	___fldiv@grs^0,0,c
  8045  000DCA  EFFC  F006         	goto	l3788
  8046  000DCE                     l3782:
  8047  000DCE  90D8               	bcf	status,0,c
  8048  000DD0  3615               	rlcf	___fldiv@b^0,f,c
  8049  000DD2  3616               	rlcf	(___fldiv@b+1)^0,f,c
  8050  000DD4  3617               	rlcf	(___fldiv@b+2)^0,f,c
  8051  000DD6  3618               	rlcf	(___fldiv@b+3)^0,f,c
  8052  000DD8  AE2B               	btfss	(___fldiv@grs+3)^0,7,c
  8053  000DDA  EFF1  F006         	goto	u3061
  8054  000DDE  EFF3  F006         	goto	u3060
  8055  000DE2                     u3061:
  8056  000DE2  EFF4  F006         	goto	l1233
  8057  000DE6                     u3060:
  8058  000DE6  8015               	bsf	___fldiv@b^0,0,c
  8059  000DE8                     l1233:
  8060  000DE8  90D8               	bcf	status,0,c
  8061  000DEA  3628               	rlcf	___fldiv@grs^0,f,c
  8062  000DEC  3629               	rlcf	(___fldiv@grs+1)^0,f,c
  8063  000DEE  362A               	rlcf	(___fldiv@grs+2)^0,f,c
  8064  000DF0  362B               	rlcf	(___fldiv@grs+3)^0,f,c
  8065  000DF2  0626               	decf	___fldiv@new_exp^0,f,c
  8066  000DF4  A0D8               	btfss	status,0,c
  8067  000DF6  0627               	decf	(___fldiv@new_exp+1)^0,f,c
  8068  000DF8                     l3788:
  8069  000DF8  AE17               	btfss	(___fldiv@b+2)^0,7,c
  8070  000DFA  EF01  F007         	goto	u3071
  8071  000DFE  EF03  F007         	goto	u3070
  8072  000E02                     u3071:
  8073  000E02  EFE7  F006         	goto	l3782
  8074  000E06                     u3070:
  8075  000E06  0E00               	movlw	0
  8076  000E08  6E2D               	movwf	___fldiv@aexp^0,c
  8077  000E0A  AE2B               	btfss	(___fldiv@grs+3)^0,7,c
  8078  000E0C  EF0A  F007         	goto	u3081
  8079  000E10  EF0C  F007         	goto	u3080
  8080  000E14                     u3081:
  8081  000E14  EF30  F007         	goto	l1235
  8082  000E18                     u3080:
  8083  000E18  0EFF               	movlw	255
  8084  000E1A  1428               	andwf	___fldiv@grs^0,w,c
  8085  000E1C  6E1D               	movwf	??___fldiv^0,c
  8086  000E1E  0EFF               	movlw	255
  8087  000E20  1429               	andwf	(___fldiv@grs+1)^0,w,c
  8088  000E22  6E1E               	movwf	(??___fldiv+1)^0,c
  8089  000E24  0EFF               	movlw	255
  8090  000E26  142A               	andwf	(___fldiv@grs+2)^0,w,c
  8091  000E28  6E1F               	movwf	(??___fldiv+2)^0,c
  8092  000E2A  0E7F               	movlw	127
  8093  000E2C  142B               	andwf	(___fldiv@grs+3)^0,w,c
  8094  000E2E  6E20               	movwf	(??___fldiv+3)^0,c
  8095  000E30  501D               	movf	??___fldiv^0,w,c
  8096  000E32  101E               	iorwf	(??___fldiv+1)^0,w,c
  8097  000E34  101F               	iorwf	(??___fldiv+2)^0,w,c
  8098  000E36  1020               	iorwf	(??___fldiv+3)^0,w,c
  8099  000E38  B4D8               	btfsc	status,2,c
  8100  000E3A  EF21  F007         	goto	u3091
  8101  000E3E  EF23  F007         	goto	u3090
  8102  000E42                     u3091:
  8103  000E42  EF27  F007         	goto	l1236
  8104  000E46                     u3090:
  8105  000E46                     l3796:
  8106  000E46  0E01               	movlw	1
  8107  000E48  6E2D               	movwf	___fldiv@aexp^0,c
  8108  000E4A  EF30  F007         	goto	l1235
  8109  000E4E                     l1236:
  8110  000E4E  A015               	btfss	___fldiv@b^0,0,c
  8111  000E50  EF2C  F007         	goto	u3101
  8112  000E54  EF2E  F007         	goto	u3100
  8113  000E58                     u3101:
  8114  000E58  EF30  F007         	goto	l1235
  8115  000E5C                     u3100:
  8116  000E5C  EF23  F007         	goto	l3796
  8117  000E60                     l1235:
  8118  000E60  502D               	movf	___fldiv@aexp^0,w,c
  8119  000E62  B4D8               	btfsc	status,2,c
  8120  000E64  EF36  F007         	goto	u3111
  8121  000E68  EF38  F007         	goto	u3110
  8122  000E6C                     u3111:
  8123  000E6C  EF5C  F007         	goto	l3808
  8124  000E70                     u3110:
  8125  000E70  0E01               	movlw	1
  8126  000E72  2615               	addwf	___fldiv@b^0,f,c
  8127  000E74  0E00               	movlw	0
  8128  000E76  2216               	addwfc	(___fldiv@b+1)^0,f,c
  8129  000E78  2217               	addwfc	(___fldiv@b+2)^0,f,c
  8130  000E7A  2218               	addwfc	(___fldiv@b+3)^0,f,c
  8131  000E7C  A018               	btfss	(___fldiv@b+3)^0,0,c
  8132  000E7E  EF43  F007         	goto	u3121
  8133  000E82  EF45  F007         	goto	u3120
  8134  000E86                     u3121:
  8135  000E86  EF5C  F007         	goto	l3808
  8136  000E8A                     u3120:
  8137  000E8A  C015  F01D         	movff	___fldiv@b,??___fldiv
  8138  000E8E  C016  F01E         	movff	___fldiv@b+1,??___fldiv+1
  8139  000E92  C017  F01F         	movff	___fldiv@b+2,??___fldiv+2
  8140  000E96  C018  F020         	movff	___fldiv@b+3,??___fldiv+3
  8141  000E9A  3420               	rlcf	(??___fldiv+3)^0,w,c
  8142  000E9C  3220               	rrcf	(??___fldiv+3)^0,f,c
  8143  000E9E  321F               	rrcf	(??___fldiv+2)^0,f,c
  8144  000EA0  321E               	rrcf	(??___fldiv+1)^0,f,c
  8145  000EA2  321D               	rrcf	??___fldiv^0,f,c
  8146  000EA4  C01D  F015         	movff	??___fldiv,___fldiv@b
  8147  000EA8  C01E  F016         	movff	??___fldiv+1,___fldiv@b+1
  8148  000EAC  C01F  F017         	movff	??___fldiv+2,___fldiv@b+2
  8149  000EB0  C020  F018         	movff	??___fldiv+3,___fldiv@b+3
  8150  000EB4  4A26               	infsnz	___fldiv@new_exp^0,f,c
  8151  000EB6  2A27               	incf	(___fldiv@new_exp+1)^0,f,c
  8152  000EB8                     l3808:
  8153  000EB8  BE27               	btfsc	(___fldiv@new_exp+1)^0,7,c
  8154  000EBA  EF67  F007         	goto	u3131
  8155  000EBE  5027               	movf	(___fldiv@new_exp+1)^0,w,c
  8156  000EC0  E108               	bnz	u3130
  8157  000EC2  2826               	incf	___fldiv@new_exp^0,w,c
  8158  000EC4  A0D8               	btfss	status,0,c
  8159  000EC6  EF67  F007         	goto	u3131
  8160  000ECA  EF69  F007         	goto	u3130
  8161  000ECE                     u3131:
  8162  000ECE  EF74  F007         	goto	l3812
  8163  000ED2                     u3130:
  8164  000ED2  0E00               	movlw	0
  8165  000ED4  6E27               	movwf	(___fldiv@new_exp+1)^0,c
  8166  000ED6  6826               	setf	___fldiv@new_exp^0,c
  8167  000ED8  0E00               	movlw	0
  8168  000EDA  6E15               	movwf	___fldiv@b^0,c
  8169  000EDC  0E00               	movlw	0
  8170  000EDE  6E16               	movwf	(___fldiv@b+1)^0,c
  8171  000EE0  0E00               	movlw	0
  8172  000EE2  6E17               	movwf	(___fldiv@b+2)^0,c
  8173  000EE4  0E00               	movlw	0
  8174  000EE6  6E18               	movwf	(___fldiv@b+3)^0,c
  8175  000EE8                     l3812:
  8176  000EE8  BE27               	btfsc	(___fldiv@new_exp+1)^0,7,c
  8177  000EEA  EF81  F007         	goto	u3140
  8178  000EEE  5027               	movf	(___fldiv@new_exp+1)^0,w,c
  8179  000EF0  E106               	bnz	u3141
  8180  000EF2  0426               	decf	___fldiv@new_exp^0,w,c
  8181  000EF4  B0D8               	btfsc	status,0,c
  8182  000EF6  EF7F  F007         	goto	u3141
  8183  000EFA  EF81  F007         	goto	u3140
  8184  000EFE                     u3141:
  8185  000EFE  EF8F  F007         	goto	l3816
  8186  000F02                     u3140:
  8187  000F02  0E00               	movlw	0
  8188  000F04  6E27               	movwf	(___fldiv@new_exp+1)^0,c
  8189  000F06  0E00               	movlw	0
  8190  000F08  6E26               	movwf	___fldiv@new_exp^0,c
  8191  000F0A  0E00               	movlw	0
  8192  000F0C  6E15               	movwf	___fldiv@b^0,c
  8193  000F0E  0E00               	movlw	0
  8194  000F10  6E16               	movwf	(___fldiv@b+1)^0,c
  8195  000F12  0E00               	movlw	0
  8196  000F14  6E17               	movwf	(___fldiv@b+2)^0,c
  8197  000F16  0E00               	movlw	0
  8198  000F18  6E18               	movwf	(___fldiv@b+3)^0,c
  8199  000F1A  0E00               	movlw	0
  8200  000F1C  6E25               	movwf	___fldiv@sign^0,c
  8201  000F1E                     l3816:
  8202  000F1E  C026  F02C         	movff	___fldiv@new_exp,___fldiv@bexp
  8203  000F22  A02C               	btfss	___fldiv@bexp^0,0,c
  8204  000F24  EF96  F007         	goto	u3151
  8205  000F28  EF98  F007         	goto	u3150
  8206  000F2C                     u3151:
  8207  000F2C  EF9B  F007         	goto	l3822
  8208  000F30                     u3150:
  8209  000F30  8E17               	bsf	(___fldiv@b+2)^0,7,c
  8210  000F32  EF9C  F007         	goto	l3824
  8211  000F36                     l3822:
  8212  000F36  9E17               	bcf	(___fldiv@b+2)^0,7,c
  8213  000F38                     l3824:
  8214  000F38  90D8               	bcf	status,0,c
  8215  000F3A  302C               	rrcf	___fldiv@bexp^0,w,c
  8216  000F3C  6E18               	movwf	(___fldiv@b+3)^0,c
  8217  000F3E  EF52  F006         	goto	l3738
  8218  000F42                     l1222:
  8219  000F42  0012               	return		;funcret
  8220  000F44                     __end_of___fldiv:
  8221                           	callstack 0
  8222                           
  8223                           	psect	rparam
  8224  0000                     
  8225                           	psect	idloc
  8226                           
  8227                           ;Config register IDLOC0 @ 0x200000
  8228                           ;	unspecified, using default values
  8229  200000                     	org	2097152
  8230  200000  FF                 	db	255
  8231                           
  8232                           ;Config register IDLOC1 @ 0x200001
  8233                           ;	unspecified, using default values
  8234  200001                     	org	2097153
  8235  200001  FF                 	db	255
  8236                           
  8237                           ;Config register IDLOC2 @ 0x200002
  8238                           ;	unspecified, using default values
  8239  200002                     	org	2097154
  8240  200002  FF                 	db	255
  8241                           
  8242                           ;Config register IDLOC3 @ 0x200003
  8243                           ;	unspecified, using default values
  8244  200003                     	org	2097155
  8245  200003  FF                 	db	255
  8246                           
  8247                           ;Config register IDLOC4 @ 0x200004
  8248                           ;	unspecified, using default values
  8249  200004                     	org	2097156
  8250  200004  FF                 	db	255
  8251                           
  8252                           ;Config register IDLOC5 @ 0x200005
  8253                           ;	unspecified, using default values
  8254  200005                     	org	2097157
  8255  200005  FF                 	db	255
  8256                           
  8257                           ;Config register IDLOC6 @ 0x200006
  8258                           ;	unspecified, using default values
  8259  200006                     	org	2097158
  8260  200006  FF                 	db	255
  8261                           
  8262                           ;Config register IDLOC7 @ 0x200007
  8263                           ;	unspecified, using default values
  8264  200007                     	org	2097159
  8265  200007  FF                 	db	255
  8266                           
  8267                           	psect	config
  8268                           
  8269                           ; Padding undefined space
  8270  300000                     	org	3145728
  8271  300000  FF                 	db	255
  8272                           
  8273                           ;Config register CONFIG1H @ 0x300001
  8274                           ;	unspecified, using default values
  8275                           ;	Oscillator Selection bits
  8276                           ;	OSC = 0x7, unprogrammed default
  8277                           ;	Fail-Safe Clock Monitor Enable bit
  8278                           ;	FCMEN = 0x0, unprogrammed default
  8279                           ;	Internal/External Oscillator Switchover bit
  8280                           ;	IESO = 0x0, unprogrammed default
  8281  300001                     	org	3145729
  8282  300001  07                 	db	7
  8283                           
  8284                           ;Config register CONFIG2L @ 0x300002
  8285                           ;	unspecified, using default values
  8286                           ;	Power-up Timer Enable bit
  8287                           ;	PWRT = 0x1, unprogrammed default
  8288                           ;	Brown-out Reset Enable bits
  8289                           ;	BOREN = 0x3, unprogrammed default
  8290                           ;	Brown-out Reset Voltage bits
  8291                           ;	BORV = 0x3, unprogrammed default
  8292  300002                     	org	3145730
  8293  300002  1F                 	db	31
  8294                           
  8295                           ;Config register CONFIG2H @ 0x300003
  8296                           ;	unspecified, using default values
  8297                           ;	Watchdog Timer Enable bit
  8298                           ;	WDT = 0x1, unprogrammed default
  8299                           ;	Watchdog Timer Postscale Select bits
  8300                           ;	WDTPS = 0xF, unprogrammed default
  8301  300003                     	org	3145731
  8302  300003  1F                 	db	31
  8303                           
  8304                           ; Padding undefined space
  8305  300004                     	org	3145732
  8306  300004  FF                 	db	255
  8307                           
  8308                           ;Config register CONFIG3H @ 0x300005
  8309                           ;	unspecified, using default values
  8310                           ;	PORTB A/D Enable bit
  8311                           ;	PBADEN = 0x1, unprogrammed default
  8312                           ;	Low-Power Timer 1 Oscillator Enable bit
  8313                           ;	LPT1OSC = 0x0, unprogrammed default
  8314                           ;	MCLR Pin Enable bit
  8315                           ;	MCLRE = 0x1, unprogrammed default
  8316  300005                     	org	3145733
  8317  300005  82                 	db	130
  8318                           
  8319                           ;Config register CONFIG4L @ 0x300006
  8320                           ;	unspecified, using default values
  8321                           ;	Stack Full/Underflow Reset Enable bit
  8322                           ;	STVREN = 0x1, unprogrammed default
  8323                           ;	Single-Supply ICSP Enable bit
  8324                           ;	LVP = 0x1, unprogrammed default
  8325                           ;	Boot Block Size Select bit
  8326                           ;	BBSIZ = 0x0, unprogrammed default
  8327                           ;	Extended Instruction Set Enable bit
  8328                           ;	XINST = 0x0, unprogrammed default
  8329                           ;	Background Debugger Enable bit
  8330                           ;	DEBUG = 0x1, unprogrammed default
  8331  300006                     	org	3145734
  8332  300006  85                 	db	133
  8333                           
  8334                           ; Padding undefined space
  8335  300007                     	org	3145735
  8336  300007  FF                 	db	255
  8337                           
  8338                           ;Config register CONFIG5L @ 0x300008
  8339                           ;	unspecified, using default values
  8340                           ;	Code Protection bit
  8341                           ;	CP0 = 0x1, unprogrammed default
  8342                           ;	Code Protection bit
  8343                           ;	CP1 = 0x1, unprogrammed default
  8344                           ;	Code Protection bit
  8345                           ;	CP2 = 0x1, unprogrammed default
  8346                           ;	Code Protection bit
  8347                           ;	CP3 = 0x1, unprogrammed default
  8348  300008                     	org	3145736
  8349  300008  0F                 	db	15
  8350                           
  8351                           ;Config register CONFIG5H @ 0x300009
  8352                           ;	unspecified, using default values
  8353                           ;	Boot Block Code Protection bit
  8354                           ;	CPB = 0x1, unprogrammed default
  8355                           ;	Data EEPROM Code Protection bit
  8356                           ;	CPD = 0x1, unprogrammed default
  8357  300009                     	org	3145737
  8358  300009  C0                 	db	192
  8359                           
  8360                           ;Config register CONFIG6L @ 0x30000A
  8361                           ;	unspecified, using default values
  8362                           ;	Write Protection bit
  8363                           ;	WRT0 = 0x1, unprogrammed default
  8364                           ;	Write Protection bit
  8365                           ;	WRT1 = 0x1, unprogrammed default
  8366                           ;	Write Protection bit
  8367                           ;	WRT2 = 0x1, unprogrammed default
  8368                           ;	Write Protection bit
  8369                           ;	WRT3 = 0x1, unprogrammed default
  8370  30000A                     	org	3145738
  8371  30000A  0F                 	db	15
  8372                           
  8373                           ;Config register CONFIG6H @ 0x30000B
  8374                           ;	unspecified, using default values
  8375                           ;	Configuration Register Write Protection bit
  8376                           ;	WRTC = 0x1, unprogrammed default
  8377                           ;	Boot Block Write Protection bit
  8378                           ;	WRTB = 0x1, unprogrammed default
  8379                           ;	Data EEPROM Write Protection bit
  8380                           ;	WRTD = 0x1, unprogrammed default
  8381  30000B                     	org	3145739
  8382  30000B  E0                 	db	224
  8383                           
  8384                           ;Config register CONFIG7L @ 0x30000C
  8385                           ;	unspecified, using default values
  8386                           ;	Table Read Protection bit
  8387                           ;	EBTR0 = 0x1, unprogrammed default
  8388                           ;	Table Read Protection bit
  8389                           ;	EBTR1 = 0x1, unprogrammed default
  8390                           ;	Table Read Protection bit
  8391                           ;	EBTR2 = 0x1, unprogrammed default
  8392                           ;	Table Read Protection bit
  8393                           ;	EBTR3 = 0x1, unprogrammed default
  8394  30000C                     	org	3145740
  8395  30000C  0F                 	db	15
  8396                           
  8397                           ;Config register CONFIG7H @ 0x30000D
  8398                           ;	unspecified, using default values
  8399                           ;	Boot Block Table Read Protection bit
  8400                           ;	EBTRB = 0x1, unprogrammed default
  8401  30000D                     	org	3145741
  8402  30000D  40                 	db	64
  8403                           tosu	equ	0xFFF
  8404                           tosh	equ	0xFFE
  8405                           tosl	equ	0xFFD
  8406                           stkptr	equ	0xFFC
  8407                           pclatu	equ	0xFFB
  8408                           pclath	equ	0xFFA
  8409                           pcl	equ	0xFF9
  8410                           tblptru	equ	0xFF8
  8411                           tblptrh	equ	0xFF7
  8412                           tblptrl	equ	0xFF6
  8413                           tablat	equ	0xFF5
  8414                           prodh	equ	0xFF4
  8415                           prodl	equ	0xFF3
  8416                           indf0	equ	0xFEF
  8417                           postinc0	equ	0xFEE
  8418                           postdec0	equ	0xFED
  8419                           preinc0	equ	0xFEC
  8420                           plusw0	equ	0xFEB
  8421                           fsr0h	equ	0xFEA
  8422                           fsr0l	equ	0xFE9
  8423                           wreg	equ	0xFE8
  8424                           indf1	equ	0xFE7
  8425                           postinc1	equ	0xFE6
  8426                           postdec1	equ	0xFE5
  8427                           preinc1	equ	0xFE4
  8428                           plusw1	equ	0xFE3
  8429                           fsr1h	equ	0xFE2
  8430                           fsr1l	equ	0xFE1
  8431                           bsr	equ	0xFE0
  8432                           indf2	equ	0xFDF
  8433                           postinc2	equ	0xFDE
  8434                           postdec2	equ	0xFDD
  8435                           preinc2	equ	0xFDC
  8436                           plusw2	equ	0xFDB
  8437                           fsr2h	equ	0xFDA
  8438                           fsr2l	equ	0xFD9
  8439                           status	equ	0xFD8

Data Sizes:
    Strings     181
    Constant    0
    Data        123
    BSS         53
    Persistent  0
    Stack       0

Auto Spaces:
    Space          Size  Autos    Used
    COMRAM           95     88      95
    BANK0           160     86     146
    BANK1           256      0     109
    BANK2           256      0       0
    BANK3           256      0       0
    BANK4           256      0       0
    BANK5           256      0       0

Pointer List with Targets:

    strncpy@s	PTR const unsigned char  size(2) Largest target is 9
		 -> time(BANK0[9]), 

    strncpy@d	PTR unsigned char  size(2) Largest target is 16
		 -> log_event@log(COMRAM[16]), 

    strncpy@cp	PTR unsigned char  size(2) Largest target is 16
		 -> log_event@log(COMRAM[16]), 

    strncmp@_r	PTR const unsigned char  size(2) Largest target is 5
		 -> r_pssd(BANK0[5]), check_pssd@pssd(BANK0[5]), 

    strncmp@r	PTR const unsigned char  size(2) Largest target is 5
		 -> r_pssd(BANK0[5]), check_pssd@pssd(BANK0[5]), 

    strncmp@_l	PTR const unsigned char  size(2) Largest target is 5
		 -> pssd(BANK0[5]), check_pssd@s_pssd(COMRAM[5]), 

    strncmp@l	PTR const unsigned char  size(2) Largest target is 5
		 -> pssd(BANK0[5]), check_pssd@s_pssd(COMRAM[5]), 

    puts@s	PTR const unsigned char  size(2) Largest target is 17
		 -> download_log@ch(COMRAM[17]), 

    log_event@event	PTR unsigned char  size(2) Largest target is 24
		 -> main@ev(COMRAM[24]), 

    sp__strncpy	PTR unsigned char  size(2) Largest target is 16
		 -> log_event@log(COMRAM[16]), 

    display@event	PTR unsigned char  size(2) Largest target is 24
		 -> main@ev(COMRAM[24]), 

    read_rtc@time	PTR unsigned char  size(2) Largest target is 9
		 -> time(BANK0[9]), 

    clcd_print@data	PTR unsigned char  size(2) Largest target is 85
		 -> STR_17(CODE[15]), STR_16(CODE[17]), STR_15(CODE[16]), STR_14(CODE[15]), 
		 -> STR_13(CODE[14]), STR_12(CODE[8]), STR_11(CODE[8]), STR_10(CODE[9]), 
		 -> STR_9(CODE[8]), STR_8(CODE[8]), view_log@ch(COMRAM[16]), login_screen@arr(BANK0[85]), 
		 -> STR_7(CODE[12]), STR_6(CODE[13]), STR_5(CODE[15]), STR_4(CODE[14]), 
		 -> STR_3(CODE[15]), time(BANK0[9]), STR_2(CODE[17]), STR_1(CODE[17]), 
		 -> main@ev(COMRAM[24]), 


Critical Paths under _main in COMRAM

    _main->___fltol
    _view_log->_clcd_print
    _set_time->_clcd_print_ch
    _login_screen->_clcd_print_ch
    _log_event->___awmod
    _write_external_eeprom->_i2c_write
    _init_config->_init_ds1307
    _init_ds1307->_read_ds1307
    _init_ds1307->_write_ds1307
    _write_ds1307->_i2c_write
    _init_clcd->_clcd_write
    _download_log->_clcd_print
    _read_external_eeprom->_i2c_write
    _puts->_putch
    _display->_clcd_print_ch
    _read_rtc->_clcd_print
    _read_ds1307->_i2c_write
    _clear_log->_clcd_print
    _check_pssd->_clcd_print_ch
    ___awmod->___awdiv
    _change_pssd->_clcd_print_ch
    _clcd_print_ch->___awmod
    _clcd_print->_clcd_write
    ___xxtofl->_read_adc
    ___fltol->___fldiv
    ___fldiv->___xxtofl

Critical Paths under _main in BANK0

    _main->_login_screen

Critical Paths under _main in BANK1

    None.

Critical Paths under _main in BANK2

    None.

Critical Paths under _main in BANK3

    None.

Critical Paths under _main in BANK4

    None.

Critical Paths under _main in BANK5

    None.

Call Graph Tables:

 ---------------------------------------------------------------------------------
 (Depth) Function   	        Calls       Base Space   Used Autos Params    Refs
 ---------------------------------------------------------------------------------
 (0) _main                                                37    37      0  132466
                                             55 COMRAM    33    33      0
                            ___awdiv
                            ___awmod
                            ___fldiv
                            ___fltol
                           ___xxtofl
                        _change_pssd
                         _check_pssd
                         _clcd_print
                      _clcd_print_ch
                         _clcd_write
                          _clear_log
                            _display
                       _download_log
                           _get_time
                        _init_config
                          _log_event
                       _login_screen
                           _read_adc
                           _read_key
                           _set_time
                           _view_log
                    _write_to_eeprom
 ---------------------------------------------------------------------------------
 (1) _view_log                                            20    20      0    7985
                                              5 COMRAM    20    20      0
                         _clcd_print
                         _clcd_write
               _read_external_eeprom
                           _read_key
 ---------------------------------------------------------------------------------
 (1) _set_time                                             4     4      0   11018
                                             16 COMRAM     4     4      0
                            ___awdiv
                            ___awmod
                      _clcd_print_ch
                           _read_key
                       _write_ds1307
 ---------------------------------------------------------------------------------
 (1) _read_adc                                             6     4      2      22
                                              0 COMRAM     6     4      2
 ---------------------------------------------------------------------------------
 (1) _login_screen                                        90    90      0   13127
                                             16 COMRAM     4     4      0
                                              0 BANK0     86    86      0
                         _clcd_print
                      _clcd_print_ch
                         _clcd_write
                           _read_key
 ---------------------------------------------------------------------------------
 (2) _read_key                                             2     2      0     133
                                              0 COMRAM     2     2      0
                           _scan_key
 ---------------------------------------------------------------------------------
 (3) _scan_key                                             0     0      0       0
 ---------------------------------------------------------------------------------
 (1) _log_event                                           22    19      3    6413
                                             14 COMRAM    20    17      3
                            ___awdiv
                            ___awmod
                            _strncpy
              _write_external_eeprom
 ---------------------------------------------------------------------------------
 (2) _write_external_eeprom                                4     3      1     165
                                              1 COMRAM     4     3      1
                          _i2c_start
                           _i2c_stop
                          _i2c_write
 ---------------------------------------------------------------------------------
 (2) _strncpy                                              8     2      6     369
                                              0 COMRAM     8     2      6
 ---------------------------------------------------------------------------------
 (1) _init_config                                          0     0      0    2602
                           _init_adc
                          _init_clcd
                        _init_ds1307
                           _init_i2c
                        _init_matrix
                          _init_uart
 ---------------------------------------------------------------------------------
 (2) _init_uart                                            0     0      0       0
 ---------------------------------------------------------------------------------
 (2) _init_matrix                                          0     0      0       0
 ---------------------------------------------------------------------------------
 (2) _init_i2c                                             0     0      0       0
 ---------------------------------------------------------------------------------
 (2) _init_ds1307                                          1     1      0     734
                                              3 COMRAM     1     1      0
                        _read_ds1307
                       _write_ds1307
 ---------------------------------------------------------------------------------
 (2) _write_ds1307                                         2     1      1     598
                                              1 COMRAM     2     1      1
                          _i2c_start
                           _i2c_stop
                          _i2c_write
 ---------------------------------------------------------------------------------
 (2) _init_clcd                                            1     1      0    1868
                                              2 COMRAM     1     1      0
                         _clcd_write
 ---------------------------------------------------------------------------------
 (2) _init_adc                                             0     0      0       0
 ---------------------------------------------------------------------------------
 (1) _get_time                                             0     0      0       0
 ---------------------------------------------------------------------------------
 (1) _download_log                                        21    21      0    7998
                                              5 COMRAM    21    21      0
                         _clcd_print
                         _clcd_write
                               _puts
               _read_external_eeprom
 ---------------------------------------------------------------------------------
 (2) _read_external_eeprom                                 2     2      0      67
                                              1 COMRAM     2     2      0
                           _i2c_read
                      _i2c_rep_start
                          _i2c_start
                           _i2c_stop
                          _i2c_write
 ---------------------------------------------------------------------------------
 (2) _puts                                                 2     0      2     143
                                              1 COMRAM     2     0      2
                              _putch
 ---------------------------------------------------------------------------------
 (3) _putch                                                1     1      0      22
                                              0 COMRAM     1     1      0
 ---------------------------------------------------------------------------------
 (1) _display                                              3     0      3   22159
                                             16 COMRAM     3     0      3
                            ___awdiv
                            ___awmod
                         _clcd_print
                      _clcd_print_ch
                           _read_rtc
 ---------------------------------------------------------------------------------
 (2) _read_rtc                                             3     1      2    6098
                                              5 COMRAM     3     1      2
                         _clcd_print
                        _read_ds1307
 ---------------------------------------------------------------------------------
 (3) _read_ds1307                                          2     2      0      67
                                              1 COMRAM     2     2      0
                           _i2c_read
                      _i2c_rep_start
                          _i2c_start
                           _i2c_stop
                          _i2c_write
 ---------------------------------------------------------------------------------
 (3) _i2c_write                                            1     1      0      22
                                              0 COMRAM     1     1      0
                           _i2c_idle
 ---------------------------------------------------------------------------------
 (3) _i2c_stop                                             0     0      0       0
                           _i2c_idle
 ---------------------------------------------------------------------------------
 (3) _i2c_start                                            0     0      0       0
                           _i2c_idle
 ---------------------------------------------------------------------------------
 (3) _i2c_rep_start                                        0     0      0       0
                           _i2c_idle
 ---------------------------------------------------------------------------------
 (3) _i2c_read                                             0     0      0       0
                         _i2c_no_ack
                        _i2c_rx_mode
 ---------------------------------------------------------------------------------
 (4) _i2c_rx_mode                                          0     0      0       0
                           _i2c_idle
 ---------------------------------------------------------------------------------
 (4) _i2c_idle                                             0     0      0       0
 ---------------------------------------------------------------------------------
 (4) _i2c_no_ack                                           0     0      0       0
 ---------------------------------------------------------------------------------
 (1) _clear_log                                            2     2      0    7603
                                              5 COMRAM     2     2      0
                         _clcd_print
                         _clcd_write
 ---------------------------------------------------------------------------------
 (1) _check_pssd                                          15    15      0   18620
                                             16 COMRAM    15    15      0
                            ___awdiv
                            ___awmod
                         _clcd_print
                      _clcd_print_ch
                         _clcd_write
                     _read_to_eeprom
                            _strncmp
 ---------------------------------------------------------------------------------
 (2) _read_to_eeprom                                       1     1      0      22
                                              0 COMRAM     1     1      0
 ---------------------------------------------------------------------------------
 (2) ___awmod                                              6     2      4    2424
                                              8 COMRAM     6     2      4
                            ___awdiv (ARG)
 ---------------------------------------------------------------------------------
 (2) ___awdiv                                              8     4      4    2428
                                              0 COMRAM     8     4      4
 ---------------------------------------------------------------------------------
 (1) _change_pssd                                          5     5      0   13914
                                             16 COMRAM     5     5      0
                         _clcd_print
                      _clcd_print_ch
                         _clcd_write
                            _strncmp
                    _write_to_eeprom
 ---------------------------------------------------------------------------------
 (1) _write_to_eeprom                                      2     1      1     196
                                              0 COMRAM     2     1      1
 ---------------------------------------------------------------------------------
 (2) _strncmp                                             12     6      6     681
                                              0 COMRAM    12     6      6
 ---------------------------------------------------------------------------------
 (2) _clcd_print_ch                                        2     1      1    5256
                                             14 COMRAM     2     1      1
                            ___awdiv (ARG)
                            ___awmod (ARG)
                         _clcd_write
 ---------------------------------------------------------------------------------
 (2) _clcd_print                                           3     0      3    5735
                                              2 COMRAM     3     0      3
                         _clcd_write
 ---------------------------------------------------------------------------------
 (2) _clcd_write                                           2     1      1    1868
                                              0 COMRAM     2     1      1
 ---------------------------------------------------------------------------------
 (1) ___xxtofl                                            14    10      4     398
                                              6 COMRAM    14    10      4
                           _read_adc (ARG)
 ---------------------------------------------------------------------------------
 (1) ___fltol                                             10     6      4     305
                                             45 COMRAM    10     6      4
                            ___fldiv (ARG)
                           ___xxtofl (ARG)
                           _read_adc (ARG)
 ---------------------------------------------------------------------------------
 (1) ___fldiv                                             25    17      8    1399
                                             20 COMRAM    25    17      8
                           ___xxtofl (ARG)
                           _read_adc (ARG)
 ---------------------------------------------------------------------------------
 Estimated maximum stack depth 4
 ---------------------------------------------------------------------------------

 Call Graph Graphs:

 _main (ROOT)
   ___awdiv
   ___awmod
     ___awdiv (ARG)
   ___fldiv
     ___xxtofl (ARG)
       _read_adc (ARG)
     _read_adc (ARG)
   ___fltol
     ___fldiv (ARG)
     ___xxtofl (ARG)
     _read_adc (ARG)
   ___xxtofl
   _change_pssd
     _clcd_print
       _clcd_write
     _clcd_print_ch
       ___awdiv (ARG)
       ___awmod (ARG)
       _clcd_write (ARG)
     _clcd_write
     _strncmp
     _write_to_eeprom
   _check_pssd
     ___awdiv
     ___awmod
     _clcd_print
     _clcd_print_ch
     _clcd_write
     _read_to_eeprom
     _strncmp
   _clcd_print
   _clcd_print_ch
   _clcd_write
   _clear_log
     _clcd_print
     _clcd_write
   _display
     ___awdiv
     ___awmod
     _clcd_print
     _clcd_print_ch
     _read_rtc
       _clcd_print
       _read_ds1307
         _i2c_read
           _i2c_no_ack
           _i2c_rx_mode
             _i2c_idle
         _i2c_rep_start
           _i2c_idle
         _i2c_start
           _i2c_idle
         _i2c_stop
           _i2c_idle
         _i2c_write
           _i2c_idle
   _download_log
     _clcd_print
     _clcd_write
     _puts
       _putch
     _read_external_eeprom
       _i2c_read
       _i2c_rep_start
       _i2c_start
       _i2c_stop
       _i2c_write
   _get_time
   _init_config
     _init_adc
     _init_clcd
       _clcd_write
     _init_ds1307
       _read_ds1307
       _write_ds1307
         _i2c_start
         _i2c_stop
         _i2c_write
     _init_i2c
     _init_matrix
     _init_uart
   _log_event
     ___awdiv
     ___awmod
     _strncpy
     _write_external_eeprom
       _i2c_start
       _i2c_stop
       _i2c_write
   _login_screen
     _clcd_print
     _clcd_print_ch
     _clcd_write
     _read_key
       _scan_key
   _read_adc
   _read_key
   _set_time
     ___awdiv
     ___awmod
     _clcd_print_ch
     _read_key
     _write_ds1307
   _view_log
     _clcd_print
     _clcd_write
     _read_external_eeprom
     _read_key
   _write_to_eeprom

 Address spaces:
Name               Size   Autos  Total    Cost      Usage
BIGRAM             5FF      0       0      28        0.0%
BITBIGSFRll        281      0       0      26        0.0%
EEDATA             100      0       0       0        0.0%
BITBANK5           100      0       0      14        0.0%
BANK5              100      0       0      15        0.0%
BITBANK4           100      0       0      12        0.0%
BANK4              100      0       0      13        0.0%
BITBANK3           100      0       0      10        0.0%
BANK3              100      0       0      11        0.0%
BITBANK2           100      0       0       8        0.0%
BANK2              100      0       0       9        0.0%
BITBANK1           100      0       0       6        0.0%
BANK1              100      0      6D       7       42.6%
BITBANK0            A0      0       0       4        0.0%
BANK0               A0     56      92       5       91.2%
BITCOMRAM           5F      0       0       0        0.0%
COMRAM              5F     58      5F       1      100.0%
BITBIGSFRhhlhhh     27      0       0      17        0.0%
BITBIGSFRlh          F      0       0      25        0.0%
BITBIGSFRhhh         D      0       0      16        0.0%
BITBIGSFRhlhhlh      8      0       0      19        0.0%
BITBIGSFRhlhhh       7      0       0      18        0.0%
BITBIGSFRhllll       7      0       0      24        0.0%
BITBIGSFRhlllhh      4      0       0      22        0.0%
BITBIGSFRhlllhl      2      0       0      23        0.0%
BITBIGSFRhlhhll      1      0       0      20        0.0%
BITBIGSFRhlhl        1      0       0      21        0.0%
BIGSFR               0      0       0     200        0.0%
BITSFR_3             0      0       0     200        0.0%
SFR_3                0      0       0     200        0.0%
BITSFR_2             0      0       0     200        0.0%
SFR_2                0      0       0     200        0.0%
BITSFR_1             0      0       0     200        0.0%
SFR_1                0      0       0     200        0.0%
BITSFR               0      0       0     200        0.0%
SFR                  0      0       0     200        0.0%
STACK                0      0       0       2        0.0%
NULL                 0      0       0       0        0.0%
ABS                  0      0     15E      27        0.0%
DATA                 0      0     15E       3        0.0%
CODE                 0      0       0       0        0.0%


Microchip Technology PIC18 Macro Assembler V2.36 build 20220127204148 
Symbol Table                                                                                   Thu Oct 12 14:25:23 2023

                 ___fldiv@aexp 002D                   ___fldiv@bexp 002C                              _h 005D  
                            _i 0059                              _k 00E7                   ___fldiv@sign 0025  
        _write_external_eeprom 2826                 clcd_print@addr 0005                 clcd_print@data 0003  
                           l51 29E6                             l71 10E8                             l66 1146  
                           l68 1084                             _GO 007E11                             _RD 007D30  
                           _WR 007D31                   ___awdiv@sign 0006                            l112 234A  
                          l123 2732                            l116 28D6                            l117 28DA  
                          l126 29FE                            l222 1F98                            l142 248E  
                          l143 24EE                            l144 24A8                            l225 279C  
                          l145 24BC                            l410 2A3A                            l411 2A3C  
                          l139 2A4C                            l147 24D8                            l156 25E4  
                          l180 27FE                            l308 0BA8                            l421 2A96  
                          l405 2A14                            l501 1DB2                            l430 2AAE  
                          l183 2824                            l256 15AA                            l408 2A2C  
                          l424 2AA6                            l433 2AB4                            l177 2A76  
                          l370 2A5C                            l514 256A                            l418 2A9E  
                          l427 2A82                            l275 1ABA                            l364 28FA  
                          l436 2A8E                            l292 212E                            l268 18E2  
                          l453 27E4                            l367 2908                            l295 29AE  
                          l456 29CC                            l289 20FA                            l570 2A18  
                          l459 2986                            l475 2864                            l636 18B0  
                          l573 2A2A                            l478 295C                            l567 2932  
                          l579 28A0                            l589 23EE                            l871 21F2  
                          _CKE 007E3E                            l937 1EB8                            l884 22A2  
                          _GIE 007F97                            _RC0 007C10                            _RC1 007C11  
                          _RC2 007C12                            _RD7 007C1F                            _PEN 007E2A  
                          _SEN 007E28                            _RX9 007D5E                            _SMP 007E3F  
                          _TX9 007D66                            _WUE 007DC1                            _min 005C  
                          _sec 005E                   ___awmod@sign 000E                            prod 000FF3  
                          wreg 000FE8                   ___fltol@exp1 0037                           l1222 0F42  
                         l1302 1BAA                           l1224 0DA2                           l3000 2454  
                         l1233 0DE8                           l1330 2472                           l3002 2458  
                         l3010 2838                           l1235 0E60                           l1227 0D66  
                         l1315 2066                           l1236 0E4E                           l3100 2228  
                         l3020 293A                           l3012 283E                           l3004 2828  
                         l1309 1C06                           l3110 226E                           l3102 223A  
                         l3022 2940                           l3014 2842                           l3006 282C  
                         l3120 229A                           l3112 2276                           l3104 2242  
                         l3200 12FE                           l3040 2894                           l3032 2866  
                         l3024 2946                           l3016 284A                           l3008 2832  
                         l4000 113E                           l3050 214A                           l3114 227C  
                         l3106 224A                           l3202 1310                           l3210 1338  
                         l3034 286A                           l3026 294A                           l3018 2936  
                         l3130 29E2                           l4010 118C                           l4002 114A  
                         l3060 2170                           l3052 214E                           l3044 2130  
                         l3108 2258                           l3116 2282                           l3212 134A  
                         l3204 131C                           l3220 136A                           l3036 2878  
                         l3028 2956                           l3124 29CE                           l3140 2098  
                         l3132 2068                           l3300 18B6                           l4020 11B6  
                         l4012 1194                           l4004 1166                           l3070 21A6  
                         l3062 2182                           l3054 215C                           l3046 2134  
                         l3118 2292                           l3230 140E                           l3222 1372  
                         l3214 1356                           l3206 132C                           l3038 287C  
                         l3126 29D2                           l3150 20E0                           l3142 20A8  
                         l3134 2084                           l3310 1900                           l3302 18C8  
                         l4030 1226                           l4022 11C6                           l4014 11A0  
                         l4006 1172                           l1295 1B12                           l3072 21BC  
                         l3064 218A                           l3080 21D2                           l3056 2164  
                         l3048 2142                           l3240 145C                           l3232 141E  
                         l3224 137C                           l3208 132E                           l3128 29D6  
                         l3160 20FE                           l3152 20E4                           l3144 20AC  
                         l3136 2088                           l3312 191E                           l3304 18DA  
                         l3400 1D38                           l4024 11DE                           l4016 11A4  
                         l4008 117A                           l4032 1232                           l1298 1C6E  
                         l3082 21E2                           l3074 21C4                           l3066 2192  
                         l3058 2168                           l3090 21F8                           l3250 147C  
                         l3234 1444                           l3226 138C                           l3242 1466  
                         l3162 211C                           l3154 20F6                           l3146 20B0  
                         l3138 208C                           l3314 1928                           l3322 1942  
                         l3306 18EA                           l3170 280C                           l3410 1D60  
                         l4026 11FC                           l4018 11AC                           l3084 21EA  
                         l3076 21C6                           l3068 21A0                           l3092 2206  
                         l3260 14D0                           l3252 14A6                           l3244 1478  
                         l3228 13A0                           l3236 1446                           l2700 2AAA  
                         l3180 2760                           l3420 234C                           l3164 211E  
                         l3148 20C8                           l3340 19C2                           l3332 1986  
                         l3324 1958                           l3316 1936                           l3500 07F6  
                         l3412 1D7C                           l4028 121A                           l2710 28BC  
                         l3078 21CC                           l3094 220E                           l3270 1522  
                         l3262 14FE                           l3254 14A8                           l3238 1456  
                         l3190 12C6                           l2702 2AB0                           l3182 277E  
                         l3174 2734                           l3430 2364                           l3422 2354  
                         l3334 19A4                           l3326 196A                           l3350 19F4  
                         l3318 193C                           l3166 27E8                           l3502 082A  
                         l3510 084E                           l3406 1D40                           l3414 1DA0  
                         l2720 28C6                           l2712 28BE                           l2704 28A4  
                         l3600 163E                           l3096 2212                           l3088 21F4  
                         l3280 1542                           l3264 1504                           l3256 14B8  
                         l3192 12D8                           l3184 1292                           l3176 2744  
                         l3432 237E                           l3424 2360                           l3440 239E  
                         l2800 29B6                           l3360 1A62                           l3352 1A04  
                         l3336 19AE                           l3344 19CA                           l3328 1970  
                         l3168 27FC                           l3520 08A4                           l3512 085E  
                         l3416 1DB0                           l3408 1D5C                           l2722 28C8  
                         l2714 28C0                           l2706 28B6                           l3610 1684  
                         l3602 1650                           l3098 2220                           l3290 159A  
                         l3282 1550                           l3266 150E                           l3258 14BC  
                         l3194 12DC                           l3186 12A4                           l3450 24F0  
                         l2730 2A92                           l3178 2750                           l2810 2A26  
                         l3442 23B0                           l3434 2380                           l2802 29BC  
                         l3362 1A94                           l3354 1A0E                           l3346 19E0  
                         l3338 19BC                           l3530 092E                           l3522 08BC  
                         l3514 0870                           l3370 1C72                           l4058 1246  
                         l3700 0BC6                           l2716 28C2                           l2708 28BA  
                         l2900 28EA                           l3620 16C0                           l3612 1690  
                         l3604 165C                           l3292 15A2                           l3284 1560  
                         l3268 151C                           l3276 1528                           l3196 12E2  
                         l3188 12B6                           l3460 2538                           l3452 2500  
                         l2740 2A84                           l2732 2AA0                           l2724 2A98  
                         l3444 23C0                           l3436 2390                           l2804 29C2  
                         l2820 292E                           l2812 290A                           l3364 1AB8  
                         l3356 1A28                           l3348 19F2                           l3540 098C  
                         l3532 0940                           l3524 08D2                           l3516 0884  
                         l3508 0838                           l3380 1CBE                           l3372 1C84  
                         l3702 0BD6                           l3710 0C00                           l2718 28C4  
                         l2750 26FE                           l2910 28F8                           l2902 28EC  
                         l3630 16F4                           l3622 16CE                           l3606 166C  
                         l3286 1578                           l3278 1532                           l3198 12EE  
                         l3462 2550                           l3454 2504                           l2742 2A8C  
                         l2734 2AA2                           l2726 2A9A                           l3446 23D6  
                         l3438 2392                           l2830 22B0                           l2806 29C8  
                         l2822 2930                           l2814 2926                           l3358 1A58  
                         l3550 0A0A                           l3534 0954                           l3526 08DE  
                         l3518 0888                           l3470 06BA                           l3390 1CFC  
                         l3382 1CCC                           l3374 1C92                           l3800 0E70  
                         l3720 0C2C                           l3712 0C10                           l3704 0BE6  
                         l2752 2702                           l2904 28EE                           l3640 1754  
                         l3632 1716                           l3624 16D8                           l3616 16A4  
                         l3608 1672                           l3296 15A8                           l3288 1586  
                         l3464 255A                           l3456 2514                           l2728 2A90  
                         l2736 2A7A                           l2808 2A18                           l3448 23E0  
                         l3368 2988                           l2840 22EC                           l2832 22C0  
                         l2824 22A4                           l2816 292A                           l2760 24A2  
                         l2920 25A8                           l2912 256E                           l3552 0A1E  
                         l3544 09A6                           l3536 0958                           l3528 091E  
                         l3480 0706                           l3472 06CC                           l3376 1CB0  
                         l3392 1D02                           l3810 0ED2                           l3802 0E7C  
                         l3722 0C3C                           l3730 0C66                           l3714 0C16  
                         l3706 0BF6                           l2746 26C8                           l2906 28F2  
                         l3650 1798                           l3642 1764                           l3634 1726  
                         l3626 16DC                           l3618 16B6                           l3466 2568  
                         l3458 2528                           l2738 2A7E                           l2850 2318  
                         l2842 22F6                           l2834 22CA                           l2826 22A8  
                         l2818 292C                           l2770 24D2                           l2754 2474  
                         l2930 25CC                           l2914 2574                           l3570 0B04  
                         l3562 0A70                           l3554 0A22                           l3538 0974  
                         l3546 09E6                           l3490 074E                           l3482 071C  
                         l3474 06E2                           l3394 1D14                           l3378 1CB4  
                         l3386 1CD2                           l3820 0F30                           l3812 0EE8  
                         l3804 0E8A                           l3740 0CA8                           l3732 0C76  
                         l3724 0C4C                           l3716 0C1C                           l3708 0BF8  
                         l3900 1BDC                           l2748 26D6                           l2940 29EA  
                         l2908 28F6                           l3660 17D4                           l3652 17AA  
                         l3644 1776                           l3636 173C                           l3628 16E4  
                         l2852 2320                           l2844 22FC                           l2836 22DA  
                         l2828 22AE                           l2860 2A3E                           l2780 24EC  
                         l2756 2488                           l2932 25DC                           l2916 2586  
                         l3580 0BA6                           l3572 0B14                           l3556 0A3E  
                         l3548 09F8                           l3564 0AAC                           l3492 075C  
                         l3484 072E                           l3476 0700                           l3396 1D26  
                         l3388 1CE8                           l3822 0F36                           l3814 0F02  
                         l3806 0EB4                           l3734 0C8C                           l3726 0C5C  
                         l3718 0C2A                           l3910 1C1A                           l3902 1BE8  
                         l3662 17DE                           l3654 17B6                           l3646 1782  
                         l3638 1748                           l3590 15E0                           l2790 2970  
                         l2950 1F32                           l2942 1EBA                           l2854 232A  
                         l2846 2306                           l2838 22E4                           l2870 2A00  
                         l2862 2A46                           l2766 24B6                           l2918 2596  
                         l2926 25B2                           l3574 0B50                           l3566 0ABE  
                         l3558 0A56                           l3494 077A                           l3486 0734  
                         l3398 1D28                           l3824 0F38                           l3816 0F1E  
                         l3808 0EB8                           l3760 0D2A                           l3752 0CE0  
                         l3736 0C9C                           l3744 0CBC                           l3728 0C5E  
                         l3840 1E08                           l3832 1DB4                           l3912 1C3E  
                         l3904 1BF6                           l3680 1868                           l3664 17EC  
                         l3648 1792                           l3592 1600                           l3584 15AE  
                         l2960 2A56                           l2696 2A2C                           l2792 2974  
                         l2784 2960                           l2952 1F78                           l2944 1EEC  
                         l2856 2338                           l2848 230E                           l2880 2A12  
                         l2872 2A04                           l2864 2A48                           l2776 24E6  
                         l2928 25C2                           l2936 25E2                           l3576 0B5A  
                         l3568 0AFA                           l3496 07AE                           l3488 073C  
                         l3818 0F22                           l3770 0D70                           l3762 0D32  
                         l3754 0CFA                           l3746 0CCC                           l3738 0CA4  
                         l3842 1E0A                           l3834 1DCA                           l3914 1C4E  
                         l3906 1C14                           l2970 1FC4                           l3674 1832  
                         l3666 181A                           l3658 17CA                           l3690 18AE  
                         l3594 1610                           l3586 15BE                           l2962 2A58  
                         l2698 2AA8                           l2794 2980                           l2786 2964  
                         l2954 1F88                           l2946 1EFC                           l2866 2A6C  
                         l2858 2342                           l2890 27D0                           l2882 279E  
                         l2874 2A0C                           l3578 0B6A                           l3498 07B8  
                         l3930 0F5E                           l3922 0F44                           l3780 0DC8  
                         l3772 0D8E                           l3764 0D42                           l3756 0D0A  
                         l3748 0CCC                           l3844 1E1A                           l3916 1C5C  
                         l3908 1C16                           l2980 200E                           l2892 28DE  
                         l3676 1848                           l3668 182A                           l3596 1626  
                         l3588 15CE                           l2964 2A5A                           l2956 2A50  
                         l2788 296A                           l2948 1F1A                           l2868 2A6E  
                         l2884 27A6                           l2876 2A0E                           l3932 0F62  
                         l3924 0F48                           l3790 0E06                           l3782 0DCE  
                         l3774 0D90                           l3766 0D56                           l3758 0D1A  
                         l3694 0BAA                           l3870 1E98                           l3854 1E44  
                         l3846 1E1E                           l3838 1DDE                           l3918 1C5E  
                         l2982 2020                           l2974 1FD0                           l2894 28E2  
                         l3678 184C                           l3686 1886                           l3598 1632  
                         l2958 2A54                           l2798 29B2                           l2886 27B2  
                         l2878 2A10                           l2990 23FC                           l3950 0F92  
                         l3934 0F62                           l3926 0F5A                           l3792 0E0A  
                         l3784 0DD8                           l3776 0DA0                           l3768 0D64  
                         l3696 0BB6                           l3872 1EA8                           l3864 1E6C  
                         l3856 1E4E                           l3848 1E2C                           l3880 1ADC  
                         l2984 2042                           l2976 1FDE                           l2968 1F9A  
                         l2896 28E6                           l3688 1896                           l2888 27C6  
                         l2992 2402                           l3960 1032                           l3952 0FEE  
                         l3944 0F76                           l3936 0F62                           l3928 0F5E  
                         l3794 0E18                           l3786 0DE6                           l3778 0DB2  
                         l3698 0BC4                           l3866 1E78                           l3858 1E58  
                         l3890 1B54                           l3882 1B22                           l2978 1FF6  
                         l2898 28E8                           l3970 1070                           l3962 1034  
                         l3954 0FF6                           l3946 0F80                           l3938 0F72  
                         l3796 0E46                           l3788 0DF8                           l3868 1E88  
                         l3892 1B60                           l3884 1B38                           l3876 1ABE  
                         l2996 2432                           l2988 23F0                           l3980 10C4  
                         l3972 1082                           l3964 1038                           l3956 1010  
                         l3948 0F82                           l3894 1B92                           l3878 1ACE  
                         l2998 2448                           l3990 1100                           l3982 10D4  
                         l3974 1086                           l3958 1020                           l3966 104C  
                         l3896 1B94                           l3888 1B4C                           l3992 1112  
                         l3984 10E6                           l3968 105E                           l3976 10A2  
                         l3898 1BA0                           l3994 1122                           l3978 10B4  
                         l3996 112C                           l3988 10EE                           l3998 113A  
                         _ADON 007E10                           _CFGS 007D36                           STR_1 0612  
                         STR_2 0612                           STR_3 0651                           STR_4 066E  
                         STR_5 0642                           STR_6 067C                           STR_7 0689  
                         STR_8 06AE                           STR_9 06A6                           _BRGH 007D62  
                         _CREN 007D5C                           u2000 2444                           u2001 2440  
                         u2010 2472                           u2011 246E                           u2100 2206  
                         u2020 2864                           u2101 2202                           u2021 2860  
                         u2110 2220                           u2030 2894                           u2111 221C  
                         u2031 2890                           u3000 0CCC                           u2040 2142  
                         u2120 223A                           u2200 12B6                           u3001 0CC8  
                         u2041 213E                           u2121 2236                           u2201 12B2  
                         u3010 0D42                           u2050 215C                           u2130 2258  
                         u2210 12D8                           u3011 0D3E                           u2051 2158  
                         u2131 2254                           u2211 12D4                           u3100 0E5C  
                         u3020 0D64                           u2060 2182                           u2140 226E  
                         u2300 159A                           u2220 1310                           u3101 0E58  
                         u3021 0D60                           u2061 217E                           u2141 226A  
                         u2301 1596                           u2221 130C                           u3110 0E70  
                         u3030 0D8E                           u2070 21A0                           u2150 2292  
                         u2230 134A                           u3111 0E6C                           u3031 0D8A  
                         u2071 219C                           u2151 228E                           u2231 1346  
                         u2311 18C0                           u3120 0E8A                           u3040 0DB2  
                         u3200 1E68                           u2080 21BC                           u2240 1444  
                         u2160 20F6                           u2400 19F2                           u2320 18DA  
                         u3121 0E86                           u3041 0DAE                           u3201 1E64  
                         u2081 21B8                           u2241 1440                           u2161 20F2  
                         u2401 19EE                           u2321 18D6                           u3130 0ED2  
                         u3050 0DC8                           u3210 1E88                           u2090 21E2  
                         u2250 1456                           u2170 212E                           u2410 1A04  
                         u2330 18FC                           u3131 0ECE                           u3051 0DC4  
                         u3211 1E84                           u2091 21DE                           u2251 1452  
                         u2171 212A                           u2411 1A00                           u2331 18F8  
                         u3140 0F02                           u3060 0DE6                           u3220 1E98  
                         u3300 1C14                           u2260 1478                           u2340 191E  
                         u2180 280C                           u2420 1C84                           u3141 0EFE  
                         u3061 0DE2                           u3221 1E94                           u3301 1C10  
                         u2261 1474                           u2501 235A                           u2341 191A  
                         u2181 2808                           u2421 1C80                           u3150 0F30  
                         u3070 0E06                           u3310 1C4E                           u3230 1ACE  
                         u2270 14B8                           u2190 12A4                           u2510 2390  
                         u2350 1958                           u2430 1CB0                           u3151 0F2C  
                         u3071 0E02                           u3311 1C4A                           u3231 1ACA  
                         u2271 14B4                           u2191 12A0                           u2511 238C  
                         u2351 1954                           u2431 1CAC                           u3080 0E18  
                         u3160 1DCA                           u3320 1C5C                           u3240 1ADC  
                         u1800 2722                           u2280 14D0                           u2520 23B0  
                         u2360 196A                           u2600 084E                           u2440 1CE8  
                         u3400 1082                           u3081 0E14                           u3161 1DC6  
                         u3321 1C58                           u3241 1AD8                           u2281 14CC  
                         u2521 23AC                           u2361 1966                           u2601 084A  
                         u2441 1CE4                           u3401 107E                           u3090 0E46  
                         u3170 1DFE                           u3250 1B38                           u1810 2732  
                         u2290 14FE                           u2530 2500                           u2370 1982  
                         u2610 085E                           u2450 1CFC                           u3410 10B4  
                         u3091 0E42                           u3251 1B34                           u1811 272E  
                         u2291 14FA                           u2531 24FC                           u2371 197E  
                         u2611 085A                           u2451 1CF8                           u3411 10B0  
                         u3331 0F52                           u3180 1E2C                           u3260 1B8E  
                         u1820 2488                           u1900 2596                           u2380 19A4  
                         u2700 09A2                           u2620 0870                           u2540 06CC  
                         u2460 1D14                           u3420 10C4                           u3340 0F92  
                         u3181 1E28                           u3261 1B8A                           u1821 2484  
                         u1901 2592                           u2381 19A0                           u2701 099E  
                         u2621 086C                           u2541 06C8                           u2461 1D10  
                         u3421 10C0                           u3341 0F8E                           u3190 1E40  
                         u3270 1BD8                           u1750 2A3A                           u1830 24A2  
                         u1910 25A8                           u2390 19E0                           u2710 09F8  
                         u2630 0884                           u2550 0700                           u2470 1D26  
                         u3430 10D4                           u3350 1010                           u3191 1E3C  
                         u3175 1DF4                           u3271 1BD4                           u1807 2718  
                         u1751 2A36                           u1831 249E                           u1911 25A4  
                         u2391 19DC                           u2711 09F4                           u2631 0880  
                         u2551 06FC                           u2471 1D22                           u3431 10D0  
                         u3351 100C                           u3280 1BF6                           u1760 28B4  
                         u2800 15E0                           u1840 24B6                           u1920 25C2  
                         u2720 0A0A                           u2640 08A4                           u2560 071C  
                         u2480 1D38                           u3440 10E6                           u3360 1020  
                         u3281 1BF2                           u1761 28AE                           u2801 15DC  
                         u1841 24B2                           u1921 25BE                           u2721 0A06  
                         u2641 08A0                           u2561 0718                           u2481 1D34  
                         u3441 10E2                           u3361 101C                           u3290 1C06  
                         u2810 1600                           u1850 24D2                           u1930 25DC  
                         u2730 0A1E                           u2650 08D2                           u2570 072E  
                         u2490 1D7C                           u3450 1100                           u3370 1032  
        ?_read_external_eeprom 0001                           u3291 1C02                           u2811 15FC  
                         u1851 24CE                           u1931 25D8                           u2731 0A1A  
                         u2651 08CE                           u2571 072A                           u2491 1D78  
                         u3507 1CC4                           u3451 10FC                           u3371 102E  
                         u1780 28D6                           u1940 1FC4                           u2900 17AA  
                         u2820 1626                           u1860 24E6                           u2740 0A3E  
                         u2660 092E                           u2580 074E                           u3460 1112  
                         u3380 105E                           u1781 28D2                           u1941 1FC0  
                         u2901 17A6                           u2821 1622                           u1861 24E2  
                         u3517 192E                           u2741 0A3A                           u2661 092A  
                         u2581 074A                           u3461 110E                           u3381 105A  
                         u1790 26FA                           u1950 1FF6                           u2910 181A  
                         u2830 1650                           u1870 2A26                           u2750 0A6C  
                         u2670 0940                           u2590 077A                           u3470 1122  
                         u3390 1070                           u1775 28B6                           u1951 1FF2  
                         u2911 1816                           u2831 164C                           u1871 2A22  
                         u3607 23CA                           u3527 19B4                           u2751 0A68  
                         u2671 093C                           u2591 0776                           u3471 111E  
                         u3391 106C                           u1960 200E                           u1880 2908  
                         u2920 1868                           u2840 1684                           u2760 0ABE  
                         u2680 0954                           u3480 118C                           u1961 200A  
                         u1881 2904                           u2921 1864                           u2841 1680  
                         u3617 23E6                           u3537 22B6                           u2761 0ABA  
                         u2681 0950                           u3481 1188                           u2930 0BC4  
                         u1970 2020                           u2850 16B6                           u1890 2586  
                         u2770 0B14                           u2690 0974                           u2931 0BC0  
                         u1971 201C                           u2851 16B2                           u3627 2542  
                         u3547 22D0                           u1891 2582                           u2771 0B10  
                         u2691 0970                           u2940 0BD6                           u1980 2042  
                         u2860 16F4                           u2780 0B6A                           u2941 0BD2  
                         u1797 26F0                           u1981 203E                           u2861 16F0  
                         u3637 2560                           u3557 22E6                           u2781 0B66  
                         u2950 0BE6                           u2870 1716                           u2790 15CE  
                         u1990 242E                           u2951 0BE2                           u2871 1712  
                         u2791 15CA                           u3647 1514                           u3567 2308  
                         u1991 242A                           u2960 0C2A                           u2880 173C  
                         u2961 0C26                           u2881 1738                           u3657 156A  
                         u3577 231A                           u3497 1132                           u2970 0C3C  
                         u2890 1776                           u2971 0C38                           u2891 1772  
                         u3667 16C6                           u3587 2330                           _RCIE 007CED  
                         u2980 0C4C                           _RCEN 007E2B                           _RCIF 007CF5  
                         u2981 0C48                           u3677 17E4                           u3597 2344  
                         u2990 0C8C                           u2991 0C88                           u3687 1872  
                         u3697 18A0                           _RBPU 007F8F                 log_event@i_366 0022  
                         _SPEN 007D5F                           _RSEN 007E29                           _TXIE 007CEC  
                         _WREN 007D32                           _TXEN 007D65                           _TXIF 007CF4  
                         _SYNC 007D64                           _flag 00E5                           _main 0F44  
               log_event@event 000F                           _time 00E9                           _pssd 00DB  
                         fsr0h 000FEA                           fsr1h 000FE2                           indf0 000FEF  
                         fsr2h 000FDA                           fsr0l 000FE9                           indf1 000FE7  
                         indf2 000FDF                           fsr1l 000FE1                           fsr2l 000FD9  
                         _puts 2866                 log_event@speed 0011                           prodh 000FF4  
                         prodl 000FF3                           start 0000                ___fldiv@new_exp 0026  
                 ___param_bank 000000                 clcd_write@byte 0002                  _i2c_rep_start 2AA0  
                ??_i2c_rx_mode 0001                   ?_init_ds1307 0001                  ___fltol@sign1 0036  
                        _ABDEN 007DC0                          ?_main 0001                   ?_read_ds1307 0001  
                        _ACKEN 007E2C                          _ACKDT 007E2D                          _BCLIF 007D0B  
              __end_of___fldiv 0F44                __end_of___awdiv 21F4                          _EEADR 000FA9  
                        STR_10 0695                          STR_11 069E                          STR_12 06A6  
                        STR_13 0660                          STR_14 0651                          STR_15 0623  
                        STR_16 0601                          _BRG16 007DC3                          STR_17 0633  
              __end_of___awmod 22A4                __end_of___fltol 1EBA                          _EEPGD 007D37  
                        ?_puts 0002                ___awdiv@divisor 0003                   ?_init_config 0001  
              ___awdiv@counter 0005                          _SENDB 007D63                          _SPBRG 000FAF  
                        _PORTB 000F81                          _PORTD 000F83                          _TRISB 000F93  
                        _TRISC 000F94                          _TRISD 000F95                          _SSPIF 007CF3  
                 ?_init_matrix 0001                          _TXREG 000FAD      write_external_eeprom@data 0002  
                 display@event 0011               ??_read_to_eeprom 0001                __end_of_display 279E  
                 display@speed 0013                          _time1 00D5                          _time6 00C7  
                        _putch 2A16                          main@i 0057                          tablat 000FF5  
            check_pssd@attempt 00E6                          plusw1 000FE3                          plusw2 000FDB  
                        puts@s 0002                          status 000FD8                __end_of_strncmp 2068  
              __end_of_strncpy 2474               init_ds1307@dummy 0004                     _i2c_no_ack 2AB0  
            clcd_print_ch@addr 000F              clcd_print_ch@data 0010                __initialization 25E6  
               ?_i2c_rep_start 0001         ?_write_external_eeprom 0002                   __end_of_main 1290  
                 __end_of_puts 28A2               __end_of_i2c_idle 2A3E               __end_of_i2c_read 2A90  
             __end_of_i2c_stop 2A98          __end_of_clcd_print_ch 2A00                  ?_download_log 0001  
                       ??_main 0038                         ??_puts 0004                  __activetblptr 000002  
          __end_of_i2c_rx_mode 2AB0                         _ADCON0 000FC2                         _ADCON1 000FC1  
                       _ADCON2 000FC0                         _ABDOVF 007DC7         ??_read_external_eeprom 0002  
                       _ADRESH 000FC4                         _ADRESL 000FC3                         _EEDATA 000FA8  
                       _EECON2 000FA7               ___awdiv@dividend 0001                         ?_putch 0001  
                 _write_ds1307 29B0                         _SSPADD 000FC8                         _TRISC3 007CA3  
                       _TRISC4 007CA4                         _TRISC6 007CA6                         _TRISC7 007CA7  
                       _TRISD7 007CAF                         _SSPBUF 000FC9               __end_of___xxtofl 1C70  
                login_screen@i 00D3               __end_of_get_time 29B0                      ??___fldiv 001D  
                    ??___awdiv 0005                      ??___awmod 000D                      ??___fltol 0032  
             __end_of_init_i2c 2A16               __end_of_init_adc 2A78               __end_of_read_adc 2826  
                       clear_0 263E                 ??_download_log 0006               __end_of_read_key 25E6  
             ___awdiv@quotient 0007               __end_of_read_rtc 1F9A                         _r_pssd 00D6  
              ___awmod@divisor 000B                         isa$std 000001               __end_of_scan_key 24F0  
              ___awmod@counter 000D                         main@ev 003A                      ??_display 0014  
        read_to_eeprom@address 0001                   __pdataCOMRAM 005F               __end_of_set_time 0BAA  
                 __mediumconst 0000                         tblptrh 000FF7                         tblptrl 000FF6  
                       tblptru 000FF8               __end_of_view_log 1DB4                    read_key@key 0002  
                    ??_strncmp 0007                      ??_strncpy 0007                   ___xxtofl@arg 0011  
                 ___xxtofl@exp 0010                   ___xxtofl@val 0007                     __accesstop 0060  
      __end_of__initialization 2650                  ___rparam_used 000001                     ___fltol@f1 002E  
              ??_i2c_rep_start 0001                  ?_login_screen 0001                    ?_i2c_no_ack 0001  
               __pcstackCOMRAM 0001                check_pssd@i_346 001A                   __pidataBANK0 2A5E  
                 __pidataBANK1 265A                    _i2c_rx_mode 2AA8                  __end_of_putch 2A2C  
            __end_of_i2c_start 2AA0              __end_of_i2c_write 2A84                        ??_putch 0001  
                   __pbssBANK0 00B6         write_external_eeprom@i 0003                      ?_i2c_idle 0001  
                   _check_pssd 1290                      ?_i2c_read 0001                      ?_i2c_stop 0001  
                check_pssd@key 001E                 ??_login_screen 0011                     _clcd_print 26C8  
                   _clcd_write 28A2   write_external_eeprom@address 0005                read_ds1307@data 0003  
                      _ACKSTAT 007E2E             login_screen@F10729 0100                      ?___xxtofl 0007  
            ??_write_to_eeprom 0002                        _SSPCON1 000FC6                      ?_get_time 0001  
                   ??_i2c_idle 0001                     ??_i2c_read 0001                     ??_i2c_stop 0001  
                    ?_init_i2c 0001           __end_of_download_log 23F0                      ?_init_adc 0001  
                    ?_read_adc 0001              __end_of_clear_log 256C                      ?_read_key 0001  
                    ?_read_rtc 0006                      ?_scan_key 0001        ??_write_external_eeprom 0003  
                      __Hparam 0000                        __Lparam 0000                      ?_set_time 0001  
                   _event_flag 005F                        ___fldiv 0BAA                        ___awdiv 2130  
                      ___awmod 21F4                      ?_view_log 0001                        ___fltol 1DB4  
                 __psmallconst 0600                        __pcinit 25E6                        __ramtop 0600  
                      __ptext0 0F44                        __ptext1 1C70                        __ptext2 06B8  
                      __ptext3 27E6                        __ptext4 18B2                        __ptext5 256C  
                      __ptext6 2474                        __ptext7 2068                        __ptext8 2826  
                      __ptext9 23F0                        _display 2734              __end_of_init_clcd 234C  
                   ??___xxtofl 000B              __end_of_init_uart 2934               ___awmod@dividend 0009  
                ??_change_pssd 0011              __end_of_log_event 2130                        main@key 0058  
                   ??_get_time 0001                        _strncmp 1F9A                        _strncpy 23F0  
                   _long_press 00C9           end_of_initialization 2650                    ?_check_pssd 0001  
                  set_time@key 0014                    set_time@num 0013                     ??_init_i2c 0001  
                   ??_init_adc 0001                  __Lmediumconst 0000                     ??_read_adc 0003  
                   ??_read_key 0001                     ??_read_rtc 0008                     ??_scan_key 0001  
                  ?_clcd_print 0003                    ?_clcd_write 0001                     ??_set_time 0011  
       write_to_eeprom@address 0002                   read_key@once 00E8                        postdec1 000FE5  
                      postinc0 000FEE                        postinc1 000FE6                        postinc2 000FDE  
                   ??_view_log 0006                     main@F10708 0155                      _PORTBbits 000F81  
              read_adc@channel 0006                   read_rtc@time 0006                  i2c_write@data 0001  
         __end_of_login_screen 1ABC                  ___xxtofl@sign 000F                 download_log@ch 0008  
                  ___fldiv@grs 0028                    ___fldiv@rem 0021         login_screen@long_press 00CF  
                 log_event@log 0012            __end_of_change_pssd 18B2       read_external_eeprom@data 0003  
                   main@s_flag 0055                   ??_i2c_no_ack 0001                   ?_i2c_rx_mode 0001  
                __pidataCOMRAM 2AB6                    view_log@key 0017               check_pssd@s_pssd 0015  
          start_initialization 25E6                      _i2c_start 2A98                      _i2c_write 2A78  
           __end_of_i2c_no_ack 2AB6               login_screen@flag 00D2          __end_of_i2c_rep_start 2AA8  
                ??_init_ds1307 0004                    __pdataBANK0 00E5                    __pdataBANK1 0100  
              _write_to_eeprom 28DC                  ??_read_ds1307 0002                  _clcd_print_ch 29E8  
                 _download_log 234C                  ??_init_config 0005                  ??_init_matrix 0001  
                    ___fldiv@a 0019                      ___fldiv@b 0015                    __pbssCOMRAM 0059  
                __pcstackBANK0 0060                    _change_pssd 15AC                     ?_i2c_start 0001  
                   ?_i2c_write 0001                 check_pssd@pssd 00E0                 change_pssd@key 0013  
                 change_pssd@i 0014  __end_of_write_external_eeprom 2866                      _clear_log 24F0  
           set_time@long_press 00CD                       ?___fldiv 0015                       ?___awdiv 0001  
                     ?___awmod 0009                       ?___fltol 002E             read_ds1307@address 0002  
               ?_clcd_print_ch 000F                       ?_display 0011                    __smallconst 0600  
          __end_of_init_ds1307 27E6            __end_of_read_ds1307 2988                      _init_clcd 22A4  
          __end_of_init_config 29E8                      _init_uart 290A                       ?_strncmp 0001  
                     ?_strncpy 0001            __end_of_init_matrix 2A4E                      _log_event 2068  
                ?_write_ds1307 0002                   ??_check_pssd 0011    read_external_eeprom@address 0002  
               _read_to_eeprom 2A4E                   ??_clcd_print 0006                   ??_clcd_write 0002  
      __end_of_write_to_eeprom 290A                   _login_screen 18B2                     ?_clear_log 0001  
                download_log@i 0019                  download_log@j 001A          clcd_write@control_bit 0001  
                    main@i_157 0054                      main@i_158 0052             __end_of_check_pssd 15AC  
                    main@speed 0056                    ??_i2c_start 0001             __end_of_clcd_print 2734  
                  ??_i2c_write 0001             __end_of_clcd_write 28DC                     ?_init_clcd 0001  
                   ?_init_uart 0001                      copy_data0 25FA                      copy_data1 261A  
               ??_write_ds1307 0003                     view_log@ch 0007                     ?_log_event 000F  
       __end_of_read_to_eeprom 2A5E                       _i2c_idle 2A2C                       _i2c_read 2A84  
                     _i2c_stop 2A90                       __Hrparam 0000                login_screen@arr 0060  
                     __Lrparam 0000                login_screen@key 00B5                ??_clcd_print_ch 0010  
 __end_of_read_external_eeprom 295E                    _init_ds1307 279E                    _read_ds1307 295E  
                  _init_config 29CE                    _init_matrix 2A3E                       ___xxtofl 1ABC  
                  check_pssd@i 005B                    check_pssd@j 001F                    check_pssd@t 00D4  
          write_ds1307@address 0003                       __ptext10 29CE                       __ptext11 290A  
                     __ptext20 2934                       __ptext12 2A3E                       __ptext21 2866  
                     __ptext13 2A00                       __ptext30 2A84                       __ptext22 2A16  
                     __ptext14 279E                       __ptext31 2AA8                       __ptext23 2734  
                     __ptext15 29B0                       __ptext40 28DC                       __ptext32 2A2C  
                     __ptext24 1EBA                       __ptext16 22A4                       __ptext41 1F9A  
                     __ptext33 2AB0                       __ptext25 295E                       __ptext17 2A6C  
                     __ptext42 29E8                       __ptext34 24F0                       __ptext26 2A78  
                     __ptext18 2988                       __ptext43 26C8                       __ptext35 1290  
                     __ptext27 2A90                       __ptext19 234C                       __ptext44 28A2  
                     __ptext36 2A4E                       __ptext28 2A98                       __ptext45 1ABC  
                     __ptext37 21F4                       __ptext29 2AA0                       __ptext46 1DB4  
                     __ptext38 2130                       __ptext47 0BAA                       __ptext39 15AC  
                     _get_time 2988                ?_read_to_eeprom 0001                       _init_i2c 2A00  
                     _init_adc 2A6C                       _read_adc 27E6                       _read_key 256C  
                     _read_rtc 1EBA                       _scan_key 2474                      set_time@j 005A  
                    set_time@t 00CB                    ??_clear_log 0006               ?_write_to_eeprom 0001  
                     _set_time 06B8                       isa$xinst 000000                       _view_log 1C70  
                    view_log@i 00D1                      view_log@j 0018                      putch@byte 0001  
                 ?_change_pssd 0001                    ??_init_clcd 0003                    ??_init_uart 0001  
                  ??_log_event 0012                      strncmp@_l 0001                      strncmp@_r 0003  
                    strncpy@cp 0007            write_to_eeprom@data 0001             download_log@F10707 00B6  
                read_key@state 0001           __end_of_write_ds1307 29CE                       strncmp@l 0009  
                     strncmp@n 0005                       strncmp@r 000B                       strncpy@d 0001  
                     strncpy@n 0005                       strncpy@s 0003               write_ds1307@data 0002  
         _read_external_eeprom 2934  
